ARM GAS  C:\Users\simon\AppData\Local\Temp\cchYLTbe.s 			page 1


   1              		.syntax unified
   2              		.cpu cortex-m3
   3              		.fpu softvfp
   4              		.eabi_attribute 20, 1
   5              		.eabi_attribute 21, 1
   6              		.eabi_attribute 23, 3
   7              		.eabi_attribute 24, 1
   8              		.eabi_attribute 25, 1
   9              		.eabi_attribute 26, 1
  10              		.eabi_attribute 30, 1
  11              		.eabi_attribute 34, 1
  12              		.eabi_attribute 18, 4
  13              		.thumb
  14              		.syntax unified
  15              		.file	"FIFO_Functions.c"
  16              		.text
  17              	.Ltext0:
  18              		.cfi_sections	.debug_frame
  19              		.section	.text.FIFO_Enable,"ax",%progbits
  20              		.align	2
  21              		.global	FIFO_Enable
  22              		.thumb
  23              		.thumb_func
  24              		.type	FIFO_Enable, %function
  25              	FIFO_Enable:
  26              	.LFB64:
  27              		.file 1 "FIFO_Functions.c"
   1:FIFO_Functions.c **** /* ========================================
   2:FIFO_Functions.c ****  *
   3:FIFO_Functions.c ****  * Copyright YOUR COMPANY, THE YEAR
   4:FIFO_Functions.c ****  * All Rights Reserved
   5:FIFO_Functions.c ****  * UNPUBLISHED, LICENSED SOFTWARE.
   6:FIFO_Functions.c ****  *
   7:FIFO_Functions.c ****  * CONFIDENTIAL AND PROPRIETARY INFORMATION
   8:FIFO_Functions.c ****  * WHICH IS THE PROPERTY OF your company.
   9:FIFO_Functions.c ****  *
  10:FIFO_Functions.c ****  * ========================================
  11:FIFO_Functions.c ****  *@authors Simone Fiorani, Alessandra Gargiulo, Gaetano Iannuzzi
  12:FIFO_Functions.c ****  *@date 2020
  13:FIFO_Functions.c **** */
  14:FIFO_Functions.c **** 
  15:FIFO_Functions.c **** #include "FIFO_Functions.h"
  16:FIFO_Functions.c **** #include "Menu_Functions.h"
  17:FIFO_Functions.c **** 
  18:FIFO_Functions.c **** void FIFO_Enable ()
  19:FIFO_Functions.c **** {
  28              		.loc 1 19 0
  29              		.cfi_startproc
  30              		@ args = 0, pretend = 0, frame = 0
  31              		@ frame_needed = 0, uses_anonymous_args = 0
  32 0000 08B5     		push	{r3, lr}
  33              		.cfi_def_cfa_offset 8
  34              		.cfi_offset 3, -8
  35              		.cfi_offset 14, -4
  20:FIFO_Functions.c ****             /*Bypass Mode */                                    // Necessary to restart the FIFO ac
  21:FIFO_Functions.c ****             fifo_reg = ACC_readByte(LIS3DH_FIFO_CTRL_REG);
  36              		.loc 1 21 0
ARM GAS  C:\Users\simon\AppData\Local\Temp\cchYLTbe.s 			page 2


  37 0002 2E20     		movs	r0, #46
  38 0004 FFF7FEFF 		bl	ACC_readByte
  39              	.LVL0:
  40 0008 0A4B     		ldr	r3, .L5
  41 000a 1870     		strb	r0, [r3]
  22:FIFO_Functions.c ****             if( fifo_reg != LIS3DH_BYPASS_MODE_CTRL_REG) 
  42              		.loc 1 22 0
  43 000c 20B1     		cbz	r0, .L2
  23:FIFO_Functions.c ****             {
  24:FIFO_Functions.c ****                 fifo_reg = LIS3DH_BYPASS_MODE_CTRL_REG;
  44              		.loc 1 24 0
  45 000e 0021     		movs	r1, #0
  46 0010 1970     		strb	r1, [r3]
  25:FIFO_Functions.c ****                 ACC_writeByte(LIS3DH_FIFO_CTRL_REG,fifo_reg);
  47              		.loc 1 25 0
  48 0012 2E20     		movs	r0, #46
  49 0014 FFF7FEFF 		bl	ACC_writeByte
  50              	.LVL1:
  51              	.L2:
  26:FIFO_Functions.c ****             }
  27:FIFO_Functions.c ****             
  28:FIFO_Functions.c ****             /*FIFO */
  29:FIFO_Functions.c ****             fifo_reg = ACC_readByte(LIS3DH_FIFO_CTRL_REG);
  52              		.loc 1 29 0
  53 0018 2E20     		movs	r0, #46
  54 001a FFF7FEFF 		bl	ACC_readByte
  55              	.LVL2:
  56 001e 054B     		ldr	r3, .L5
  57 0020 1870     		strb	r0, [r3]
  30:FIFO_Functions.c ****             if( fifo_reg != LIS3DH_WTM10_MODE_CTRL_REG5) 
  58              		.loc 1 30 0
  59 0022 4A28     		cmp	r0, #74
  60 0024 04D0     		beq	.L1
  31:FIFO_Functions.c ****             {
  32:FIFO_Functions.c ****                 fifo_reg = LIS3DH_WTM10_MODE_CTRL_REG5;
  61              		.loc 1 32 0
  62 0026 4A21     		movs	r1, #74
  63 0028 1970     		strb	r1, [r3]
  33:FIFO_Functions.c ****                 ACC_writeByte(LIS3DH_FIFO_CTRL_REG,fifo_reg);
  64              		.loc 1 33 0
  65 002a 2E20     		movs	r0, #46
  66 002c FFF7FEFF 		bl	ACC_writeByte
  67              	.LVL3:
  68              	.L1:
  69 0030 08BD     		pop	{r3, pc}
  70              	.L6:
  71 0032 00BF     		.align	2
  72              	.L5:
  73 0034 00000000 		.word	fifo_reg
  74              		.cfi_endproc
  75              	.LFE64:
  76              		.size	FIFO_Enable, .-FIFO_Enable
  77              		.section	.text.FIFO_Reset,"ax",%progbits
  78              		.align	2
  79              		.global	FIFO_Reset
  80              		.thumb
  81              		.thumb_func
ARM GAS  C:\Users\simon\AppData\Local\Temp\cchYLTbe.s 			page 3


  82              		.type	FIFO_Reset, %function
  83              	FIFO_Reset:
  84              	.LFB65:
  34:FIFO_Functions.c ****             }
  35:FIFO_Functions.c **** }
  36:FIFO_Functions.c **** 
  37:FIFO_Functions.c **** 
  38:FIFO_Functions.c **** 
  39:FIFO_Functions.c **** void FIFO_Reset ()
  40:FIFO_Functions.c **** {
  85              		.loc 1 40 0
  86              		.cfi_startproc
  87              		@ args = 0, pretend = 0, frame = 0
  88              		@ frame_needed = 0, uses_anonymous_args = 0
  89 0000 08B5     		push	{r3, lr}
  90              		.cfi_def_cfa_offset 8
  91              		.cfi_offset 3, -8
  92              		.cfi_offset 14, -4
  41:FIFO_Functions.c ****     samples = 0x0000;
  93              		.loc 1 41 0
  94 0002 0023     		movs	r3, #0
  95 0004 074A     		ldr	r2, .L10
  96 0006 1380     		strh	r3, [r2]	@ movhi
  42:FIFO_Functions.c ****     j = 0;
  97              		.loc 1 42 0
  98 0008 074A     		ldr	r2, .L10+4
  99 000a 1380     		strh	r3, [r2]	@ movhi
  43:FIFO_Functions.c ****     m = 0;
 100              		.loc 1 43 0
 101 000c 074A     		ldr	r2, .L10+8
 102 000e 1380     		strh	r3, [r2]	@ movhi
  44:FIFO_Functions.c ****     
  45:FIFO_Functions.c ****     if (ActiveVisualization == 1)   ActiveVisualization = 0;
 103              		.loc 1 45 0
 104 0010 074B     		ldr	r3, .L10+12
 105 0012 1B68     		ldr	r3, [r3]
 106 0014 012B     		cmp	r3, #1
 107 0016 02D1     		bne	.L8
 108              		.loc 1 45 0 is_stmt 0 discriminator 1
 109 0018 0022     		movs	r2, #0
 110 001a 054B     		ldr	r3, .L10+12
 111 001c 1A60     		str	r2, [r3]
 112              	.L8:
  46:FIFO_Functions.c ****     
  47:FIFO_Functions.c ****     FIFO_Enable();
 113              		.loc 1 47 0 is_stmt 1
 114 001e FFF7FEFF 		bl	FIFO_Enable
 115              	.LVL4:
 116 0022 08BD     		pop	{r3, pc}
 117              	.L11:
 118              		.align	2
 119              	.L10:
 120 0024 00000000 		.word	samples
 121 0028 00000000 		.word	j
 122 002c 00000000 		.word	m
 123 0030 00000000 		.word	ActiveVisualization
 124              		.cfi_endproc
ARM GAS  C:\Users\simon\AppData\Local\Temp\cchYLTbe.s 			page 4


 125              	.LFE65:
 126              		.size	FIFO_Reset, .-FIFO_Reset
 127              		.comm	TempUnit,1,1
 128              		.comm	Sensitivity,1,1
 129              		.comm	Registration_Active,4,4
 130              		.comm	MenuActive,4,4
 131              		.comm	LoopContinue,4,4
 132              		.comm	ch_received,1,1
 133              		.comm	ActiveVisualization,4,4
 134              		.comm	ActiveRegistration,4,4
 135              		.comm	j,2,2
 136              		.comm	m,2,2
 137              		.comm	samples,2,2
 138              		.comm	ctrl_reg5,1,1
 139              		.comm	fifo_reg,1,1
 140              		.comm	PacketReadyFlag,1,1
 141              		.comm	DataBuffer,4,4
 142              		.text
 143              	.Letext0:
 144              		.file 2 "c:\\program files (x86)\\cypress\\psoc creator\\4.3\\psoc creator\\import\\gnu\\arm\\5.4.
 145              		.file 3 "c:\\program files (x86)\\cypress\\psoc creator\\4.3\\psoc creator\\import\\gnu\\arm\\5.4.
 146              		.file 4 "Generated_Source\\PSoC5/cytypes.h"
 147              		.file 5 "InterruptRoutines.h"
 148              		.file 6 "Generated_Source\\PSoC5/core_cm3.h"
 149              		.file 7 "FIFO_Functions.h"
 150              		.file 8 "Menu_Functions.h"
 151              		.file 9 "LIS3DH.h"