ARM GAS  C:\Users\gaeta\AppData\Local\Temp\ccJiZgAk.s 			page 1


   1              		.syntax unified
   2              		.cpu cortex-m3
   3              		.fpu softvfp
   4              		.eabi_attribute 20, 1
   5              		.eabi_attribute 21, 1
   6              		.eabi_attribute 23, 3
   7              		.eabi_attribute 24, 1
   8              		.eabi_attribute 25, 1
   9              		.eabi_attribute 26, 1
  10              		.eabi_attribute 30, 1
  11              		.eabi_attribute 34, 1
  12              		.eabi_attribute 18, 4
  13              		.thumb
  14              		.syntax unified
  15              		.file	"InterruptRoutines.c"
  16              		.text
  17              	.Ltext0:
  18              		.cfi_sections	.debug_frame
  19              		.global	__aeabi_i2f
  20              		.global	__aeabi_fmul
  21              		.global	__aeabi_f2iz
  22              		.global	__aeabi_fdiv
  23              		.global	__aeabi_fadd
  24              		.section	.text.Custom_ISR_ADC,"ax",%progbits
  25              		.align	2
  26              		.global	Custom_ISR_ADC
  27              		.thumb
  28              		.thumb_func
  29              		.type	Custom_ISR_ADC, %function
  30              	Custom_ISR_ADC:
  31              	.LFB64:
  32              		.file 1 "InterruptRoutines.c"
   1:InterruptRoutines.c **** /* ========================================
   2:InterruptRoutines.c ****  *
   3:InterruptRoutines.c ****  * Copyright YOUR COMPANY, THE YEAR
   4:InterruptRoutines.c ****  * All Rights Reserved
   5:InterruptRoutines.c ****  * UNPUBLISHED, LICENSED SOFTWARE.
   6:InterruptRoutines.c ****  *
   7:InterruptRoutines.c ****  * CONFIDENTIAL AND PROPRIETARY INFORMATION
   8:InterruptRoutines.c ****  * WHICH IS THE PROPERTY OF your company.
   9:InterruptRoutines.c ****  *
  10:InterruptRoutines.c ****  * ========================================
  11:InterruptRoutines.c ****  *@authors Simone Fiorani, Alessandra Gargiulo, Gaetano Iannuzzi
  12:InterruptRoutines.c ****  *@date 2020
  13:InterruptRoutines.c **** */
  14:InterruptRoutines.c **** // Include header
  15:InterruptRoutines.c **** #include "InterruptRoutines.h"
  16:InterruptRoutines.c **** #include "Menu_Functions.h"
  17:InterruptRoutines.c **** 
  18:InterruptRoutines.c **** // Include required header files
  19:InterruptRoutines.c **** #include "project.h"
  20:InterruptRoutines.c **** 
  21:InterruptRoutines.c **** // Variables declaration
  22:InterruptRoutines.c **** int32 value_digit;
  23:InterruptRoutines.c **** int32 value_mv;
  24:InterruptRoutines.c **** uint8 SendBytesFlag=0;
  25:InterruptRoutines.c **** uint16_t PushButtonCounter = 0;  // Initialitazion of the variable
ARM GAS  C:\Users\gaeta\AppData\Local\Temp\ccJiZgAk.s 			page 2


  26:InterruptRoutines.c **** int Reset_Flag = 0,p;
  27:InterruptRoutines.c **** uint8_t TempData[2];
  28:InterruptRoutines.c **** char F;
  29:InterruptRoutines.c **** int16_t  value_temp[10];
  30:InterruptRoutines.c **** float32   value_temp_float = 0;
  31:InterruptRoutines.c **** int  temp;
  32:InterruptRoutines.c **** int WTM_Full;
  33:InterruptRoutines.c **** 
  34:InterruptRoutines.c **** CY_ISR(Custom_ISR_ADC)
  35:InterruptRoutines.c **** {
  33              		.loc 1 35 0
  34              		.cfi_startproc
  35              		@ args = 0, pretend = 0, frame = 0
  36              		@ frame_needed = 0, uses_anonymous_args = 0
  37 0000 10B5     		push	{r4, lr}
  38              		.cfi_def_cfa_offset 8
  39              		.cfi_offset 4, -8
  40              		.cfi_offset 14, -4
  36:InterruptRoutines.c ****     // Read Timer status register to bring interrupt line low
  37:InterruptRoutines.c ****     Timer_ReadStatusRegister();
  41              		.loc 1 37 0
  42 0002 FFF7FEFF 		bl	Timer_ReadStatusRegister
  43              	.LVL0:
  38:InterruptRoutines.c ****     
  39:InterruptRoutines.c ****     
  40:InterruptRoutines.c ****     value_digit = ADC_DelSig_Read32();
  44              		.loc 1 40 0
  45 0006 FFF7FEFF 		bl	ADC_DelSig_Read32
  46              	.LVL1:
  47 000a 304B     		ldr	r3, .L8
  48 000c 1860     		str	r0, [r3]
  41:InterruptRoutines.c ****         
  42:InterruptRoutines.c ****     if (value_digit < 0)        value_digit = 0;
  49              		.loc 1 42 0
  50 000e 0028     		cmp	r0, #0
  51 0010 01DA     		bge	.L2
  52              		.loc 1 42 0 is_stmt 0 discriminator 1
  53 0012 0022     		movs	r2, #0
  54 0014 1A60     		str	r2, [r3]
  55              	.L2:
  43:InterruptRoutines.c ****     if (value_digit > 65535)    value_digit = 65535;
  56              		.loc 1 43 0 is_stmt 1
  57 0016 2D4B     		ldr	r3, .L8
  58 0018 1B68     		ldr	r3, [r3]
  59 001a B3F5803F 		cmp	r3, #65536
  60 001e 03DB     		blt	.L3
  61              		.loc 1 43 0 is_stmt 0 discriminator 1
  62 0020 4FF6FF72 		movw	r2, #65535
  63 0024 294B     		ldr	r3, .L8
  64 0026 1A60     		str	r2, [r3]
  65              	.L3:
  44:InterruptRoutines.c ****     
  45:InterruptRoutines.c ****     value_mv = ADC_DelSig_CountsTo_mVolts(value_digit);
  66              		.loc 1 45 0 is_stmt 1
  67 0028 284B     		ldr	r3, .L8
  68 002a 1868     		ldr	r0, [r3]
  69 002c FFF7FEFF 		bl	ADC_DelSig_CountsTo_mVolts
ARM GAS  C:\Users\gaeta\AppData\Local\Temp\ccJiZgAk.s 			page 3


  70              	.LVL2:
  71 0030 274B     		ldr	r3, .L8+4
  72 0032 1860     		str	r0, [r3]
  46:InterruptRoutines.c **** 
  47:InterruptRoutines.c ****     if      (TempUnit == CELSIUS)           
  73              		.loc 1 47 0
  74 0034 274B     		ldr	r3, .L8+8
  75 0036 1B78     		ldrb	r3, [r3]	@ zero_extendqisi2
  76 0038 BBB9     		cbnz	r3, .L4
  48:InterruptRoutines.c ****     {
  49:InterruptRoutines.c ****     value_temp_float = (value_mv-500)/10;
  77              		.loc 1 49 0
  78 003a A0F5FA70 		sub	r0, r0, #500
  79 003e A3F19933 		sub	r3, r3, #-1717986919
  80 0042 83FB0023 		smull	r2, r3, r3, r0
  81 0046 C017     		asrs	r0, r0, #31
  82 0048 C0EBA300 		rsb	r0, r0, r3, asr #2
  83 004c FFF7FEFF 		bl	__aeabi_i2f
  84              	.LVL3:
  85 0050 214B     		ldr	r3, .L8+12
  86 0052 1860     		str	r0, [r3]	@ float
  50:InterruptRoutines.c ****     value_temp[p] = (int16)(value_temp_float * 100);
  87              		.loc 1 50 0
  88 0054 214B     		ldr	r3, .L8+16
  89 0056 1C68     		ldr	r4, [r3]
  90 0058 2149     		ldr	r1, .L8+20
  91 005a FFF7FEFF 		bl	__aeabi_fmul
  92              	.LVL4:
  93 005e FFF7FEFF 		bl	__aeabi_f2iz
  94              	.LVL5:
  95 0062 204B     		ldr	r3, .L8+24
  96 0064 23F81400 		strh	r0, [r3, r4, lsl #1]	@ movhi
  97 0068 22E0     		b	.L5
  98              	.L4:
  51:InterruptRoutines.c ****     }
  52:InterruptRoutines.c ****     else if (TempUnit == FAHRENHEIT)
  99              		.loc 1 52 0
 100 006a 012B     		cmp	r3, #1
 101 006c 20D1     		bne	.L5
  53:InterruptRoutines.c ****     {
  54:InterruptRoutines.c ****         value_temp_float = (value_mv-500)/10;
 102              		.loc 1 54 0
 103 006e A0F5FA70 		sub	r0, r0, #500
 104 0072 03F16633 		add	r3, r3, #1717986918
 105 0076 83FB0023 		smull	r2, r3, r3, r0
 106 007a C017     		asrs	r0, r0, #31
 107 007c C0EBA300 		rsb	r0, r0, r3, asr #2
 108 0080 FFF7FEFF 		bl	__aeabi_i2f
 109              	.LVL6:
  55:InterruptRoutines.c ****         value_temp_float = (value_temp_float*9/5)+32;
 110              		.loc 1 55 0
 111 0084 1849     		ldr	r1, .L8+28
 112 0086 FFF7FEFF 		bl	__aeabi_fmul
 113              	.LVL7:
 114 008a 1849     		ldr	r1, .L8+32
 115 008c FFF7FEFF 		bl	__aeabi_fdiv
 116              	.LVL8:
ARM GAS  C:\Users\gaeta\AppData\Local\Temp\ccJiZgAk.s 			page 4


 117 0090 4FF08441 		mov	r1, #1107296256
 118 0094 FFF7FEFF 		bl	__aeabi_fadd
 119              	.LVL9:
 120 0098 0F4B     		ldr	r3, .L8+12
 121 009a 1860     		str	r0, [r3]	@ float
  56:InterruptRoutines.c ****         value_temp[p] = (int16)(value_temp_float * 100); 
 122              		.loc 1 56 0
 123 009c 0F4B     		ldr	r3, .L8+16
 124 009e 1C68     		ldr	r4, [r3]
 125 00a0 0F49     		ldr	r1, .L8+20
 126 00a2 FFF7FEFF 		bl	__aeabi_fmul
 127              	.LVL10:
 128 00a6 FFF7FEFF 		bl	__aeabi_f2iz
 129              	.LVL11:
 130 00aa 0E4B     		ldr	r3, .L8+24
 131 00ac 23F81400 		strh	r0, [r3, r4, lsl #1]	@ movhi
 132              	.L5:
  57:InterruptRoutines.c ****     }
  58:InterruptRoutines.c ****      p++;
 133              		.loc 1 58 0
 134 00b0 0A4A     		ldr	r2, .L8+16
 135 00b2 1368     		ldr	r3, [r2]
 136 00b4 0133     		adds	r3, r3, #1
 137 00b6 1360     		str	r3, [r2]
  59:InterruptRoutines.c ****     if(p ==9){
 138              		.loc 1 59 0
 139 00b8 092B     		cmp	r3, #9
 140 00ba 05D1     		bne	.L1
  60:InterruptRoutines.c ****     PacketReadyFlag=1;
 141              		.loc 1 60 0
 142 00bc 0122     		movs	r2, #1
 143 00be 0C4B     		ldr	r3, .L8+36
 144 00c0 1A70     		strb	r2, [r3]
  61:InterruptRoutines.c ****         p=0;
 145              		.loc 1 61 0
 146 00c2 0022     		movs	r2, #0
 147 00c4 054B     		ldr	r3, .L8+16
 148 00c6 1A60     		str	r2, [r3]
 149              	.L1:
 150 00c8 10BD     		pop	{r4, pc}
 151              	.L9:
 152 00ca 00BF     		.align	2
 153              	.L8:
 154 00cc 00000000 		.word	value_digit
 155 00d0 00000000 		.word	value_mv
 156 00d4 00000000 		.word	TempUnit
 157 00d8 00000000 		.word	.LANCHOR0
 158 00dc 00000000 		.word	p
 159 00e0 0000C842 		.word	1120403456
 160 00e4 00000000 		.word	value_temp
 161 00e8 00001041 		.word	1091567616
 162 00ec 0000A040 		.word	1084227584
 163 00f0 00000000 		.word	PacketReadyFlag
 164              		.cfi_endproc
 165              	.LFE64:
 166              		.size	Custom_ISR_ADC, .-Custom_ISR_ADC
 167              		.section	.text.Custom_Button_ISR,"ax",%progbits
ARM GAS  C:\Users\gaeta\AppData\Local\Temp\ccJiZgAk.s 			page 5


 168              		.align	2
 169              		.global	Custom_Button_ISR
 170              		.thumb
 171              		.thumb_func
 172              		.type	Custom_Button_ISR, %function
 173              	Custom_Button_ISR:
 174              	.LFB65:
  62:InterruptRoutines.c ****     }
  63:InterruptRoutines.c ****     }
  64:InterruptRoutines.c **** 
  65:InterruptRoutines.c **** 
  66:InterruptRoutines.c **** 
  67:InterruptRoutines.c **** CY_ISR(Custom_Button_ISR)
  68:InterruptRoutines.c **** {  
 175              		.loc 1 68 0
 176              		.cfi_startproc
 177              		@ args = 0, pretend = 0, frame = 0
 178              		@ frame_needed = 0, uses_anonymous_args = 0
 179 0000 08B5     		push	{r3, lr}
 180              		.cfi_def_cfa_offset 8
 181              		.cfi_offset 3, -8
 182              		.cfi_offset 14, -4
  69:InterruptRoutines.c ****     while(BUTTON_Read()==1)
 183              		.loc 1 69 0
 184 0002 0EE0     		b	.L12
 185              	.L13:
  70:InterruptRoutines.c ****     {
  71:InterruptRoutines.c ****         CyDelay(10);
 186              		.loc 1 71 0
 187 0004 0A20     		movs	r0, #10
 188 0006 FFF7FEFF 		bl	CyDelay
 189              	.LVL12:
  72:InterruptRoutines.c ****         temp ++;
 190              		.loc 1 72 0
 191 000a 084A     		ldr	r2, .L15
 192 000c 1368     		ldr	r3, [r2]
 193 000e 0133     		adds	r3, r3, #1
 194 0010 1360     		str	r3, [r2]
  73:InterruptRoutines.c ****         if(temp>= 500){
 195              		.loc 1 73 0
 196 0012 B3F5FA7F 		cmp	r3, #500
 197 0016 04DB     		blt	.L12
  74:InterruptRoutines.c ****         UART_PutString("RESET");
 198              		.loc 1 74 0
 199 0018 0548     		ldr	r0, .L15+4
 200 001a FFF7FEFF 		bl	UART_PutString
 201              	.LVL13:
  75:InterruptRoutines.c ****         FIFO_Reset();}
 202              		.loc 1 75 0
 203 001e FFF7FEFF 		bl	FIFO_Reset
 204              	.LVL14:
 205              	.L12:
  69:InterruptRoutines.c ****     {
 206              		.loc 1 69 0
 207 0022 FFF7FEFF 		bl	BUTTON_Read
 208              	.LVL15:
 209 0026 0128     		cmp	r0, #1
ARM GAS  C:\Users\gaeta\AppData\Local\Temp\ccJiZgAk.s 			page 6


 210 0028 ECD0     		beq	.L13
  76:InterruptRoutines.c ****     }
  77:InterruptRoutines.c **** }
 211              		.loc 1 77 0
 212 002a 08BD     		pop	{r3, pc}
 213              	.L16:
 214              		.align	2
 215              	.L15:
 216 002c 00000000 		.word	temp
 217 0030 00000000 		.word	.LC0
 218              		.cfi_endproc
 219              	.LFE65:
 220              		.size	Custom_Button_ISR, .-Custom_Button_ISR
 221              		.section	.text.Custom_isr_ACC,"ax",%progbits
 222              		.align	2
 223              		.global	Custom_isr_ACC
 224              		.thumb
 225              		.thumb_func
 226              		.type	Custom_isr_ACC, %function
 227              	Custom_isr_ACC:
 228              	.LFB66:
  78:InterruptRoutines.c **** 
  79:InterruptRoutines.c **** CY_ISR(Custom_isr_ACC)
  80:InterruptRoutines.c **** {
 229              		.loc 1 80 0
 230              		.cfi_startproc
 231              		@ args = 0, pretend = 0, frame = 0
 232              		@ frame_needed = 0, uses_anonymous_args = 0
 233              		@ link register save eliminated.
  81:InterruptRoutines.c ****     WTM_Full=1;
 234              		.loc 1 81 0
 235 0000 0122     		movs	r2, #1
 236 0002 014B     		ldr	r3, .L18
 237 0004 1A60     		str	r2, [r3]
 238 0006 7047     		bx	lr
 239              	.L19:
 240              		.align	2
 241              	.L18:
 242 0008 00000000 		.word	WTM_Full
 243              		.cfi_endproc
 244              	.LFE66:
 245              		.size	Custom_isr_ACC, .-Custom_isr_ACC
 246              		.comm	WTM_Full,4,4
 247              		.comm	temp,4,4
 248              		.global	value_temp_float
 249              		.comm	value_temp,20,4
 250              		.comm	F,1,1
 251              		.comm	TempData,2,4
 252              		.comm	p,4,4
 253              		.global	Reset_Flag
 254              		.global	PushButtonCounter
 255              		.global	SendBytesFlag
 256              		.comm	value_mv,4,4
 257              		.comm	value_digit,4,4
 258              		.comm	TempUnit,1,1
 259              		.comm	Sensitivity,1,1
 260              		.comm	Registration_Active,4,4
ARM GAS  C:\Users\gaeta\AppData\Local\Temp\ccJiZgAk.s 			page 7


 261              		.comm	MenuActive,4,4
 262              		.comm	LoopContinue,4,4
 263              		.comm	ch_received,1,1
 264              		.comm	ActiveVisualization,4,4
 265              		.comm	j,2,2
 266              		.comm	m,2,2
 267              		.comm	samples,2,2
 268              		.comm	ctrl_reg5,1,1
 269              		.comm	fifo_reg,1,1
 270              		.comm	PacketReadyFlag,1,1
 271              		.section	.rodata.str1.4,"aMS",%progbits,1
 272              		.align	2
 273              	.LC0:
 274 0000 52455345 		.ascii	"RESET\000"
 274      5400
 275              		.bss
 276              		.align	2
 277              		.set	.LANCHOR0,. + 0
 278              		.type	value_temp_float, %object
 279              		.size	value_temp_float, 4
 280              	value_temp_float:
 281 0000 00000000 		.space	4
 282              		.type	Reset_Flag, %object
 283              		.size	Reset_Flag, 4
 284              	Reset_Flag:
 285 0004 00000000 		.space	4
 286              		.type	PushButtonCounter, %object
 287              		.size	PushButtonCounter, 2
 288              	PushButtonCounter:
 289 0008 0000     		.space	2
 290              		.type	SendBytesFlag, %object
 291              		.size	SendBytesFlag, 1
 292              	SendBytesFlag:
 293 000a 00       		.space	1
 294              		.text
 295              	.Letext0:
 296              		.file 2 "c:\\program files (x86)\\cypress\\psoc creator\\4.3\\psoc creator\\import\\gnu\\arm\\5.4.
 297              		.file 3 "c:\\program files (x86)\\cypress\\psoc creator\\4.3\\psoc creator\\import\\gnu\\arm\\5.4.
 298              		.file 4 "Generated_Source\\PSoC5/cytypes.h"
 299              		.file 5 "InterruptRoutines.h"
 300              		.file 6 "Generated_Source\\PSoC5/core_cm3.h"
 301              		.file 7 "FIFO_Functions.h"
 302              		.file 8 "Menu_Functions.h"
 303              		.file 9 "Generated_Source\\PSoC5/Timer.h"
 304              		.file 10 "Generated_Source\\PSoC5/ADC_DelSig.h"
 305              		.file 11 "Generated_Source\\PSoC5/CyLib.h"
 306              		.file 12 "Generated_Source\\PSoC5/UART.h"
 307              		.file 13 "Generated_Source\\PSoC5/BUTTON.h"