ARM GAS  C:\Users\gaeta\AppData\Local\Temp\ccBSyW6V.s 			page 1


   1              		.syntax unified
   2              		.cpu cortex-m3
   3              		.fpu softvfp
   4              		.eabi_attribute 20, 1
   5              		.eabi_attribute 21, 1
   6              		.eabi_attribute 23, 3
   7              		.eabi_attribute 24, 1
   8              		.eabi_attribute 25, 1
   9              		.eabi_attribute 26, 1
  10              		.eabi_attribute 30, 1
  11              		.eabi_attribute 34, 1
  12              		.eabi_attribute 18, 4
  13              		.thumb
  14              		.syntax unified
  15              		.file	"main.c"
  16              		.text
  17              	.Ltext0:
  18              		.cfi_sections	.debug_frame
  19              		.section	.text.main,"ax",%progbits
  20              		.align	2
  21              		.global	main
  22              		.thumb
  23              		.thumb_func
  24              		.type	main, %function
  25              	main:
  26              	.LFB64:
  27              		.file 1 "main.c"
   1:main.c        **** /**
   2:main.c        ****  * @file main.c
   3:main.c        ****  *
   4:main.c        ****  * 
   5:main.c        ****  *
   6:main.c        ****  *@authors Simone Fiorani, Alessandra Gargiulo, Gaetano Iannuzzi
   7:main.c        ****  *@date 2020
   8:main.c        **** */
   9:main.c        **** 
  10:main.c        **** #include "project.h"
  11:main.c        **** #include <stdio.h>
  12:main.c        **** #include <string.h>
  13:main.c        **** #include "SPI_Interface.h"
  14:main.c        **** #include "LIS3DH.h"
  15:main.c        **** #include "InterruptRoutines.h"
  16:main.c        **** /* EEPROM 25LC256 Library */
  17:main.c        **** #include "25LC256.h"
  18:main.c        **** #include "ErrorCodes.h"
  19:main.c        **** #include "Menu_Functions.h"
  20:main.c        **** 
  21:main.c        **** #define UART_PutBuffer UART_PutString(bufferUART)
  22:main.c        **** char bufferUART[100];
  23:main.c        **** 
  24:main.c        **** 
  25:main.c        **** 
  26:main.c        **** int main(void) {
  28              		.loc 1 26 0
  29              		.cfi_startproc
  30              		@ args = 0, pretend = 0, frame = 144
  31              		@ frame_needed = 0, uses_anonymous_args = 0
ARM GAS  C:\Users\gaeta\AppData\Local\Temp\ccBSyW6V.s 			page 2


  32 0000 F0B5     		push	{r4, r5, r6, r7, lr}
  33              		.cfi_def_cfa_offset 20
  34              		.cfi_offset 4, -20
  35              		.cfi_offset 5, -16
  36              		.cfi_offset 6, -12
  37              		.cfi_offset 7, -8
  38              		.cfi_offset 14, -4
  39 0002 A7B0     		sub	sp, sp, #156
  40              		.cfi_def_cfa_offset 176
  27:main.c        ****     
  28:main.c        ****     /* Enable global interrupts. */
  29:main.c        ****     CyGlobalIntEnable; 
  41              		.loc 1 29 0
  42              		.syntax unified
  43              	@ 29 "main.c" 1
  44 0004 62B6     		CPSIE   i
  45              	@ 0 "" 2
  30:main.c        ****     
  31:main.c        ****     /* Start UART */
  32:main.c        ****     UART_Start();
  46              		.loc 1 32 0
  47              		.thumb
  48              		.syntax unified
  49 0006 FFF7FEFF 		bl	UART_Start
  50              	.LVL0:
  33:main.c        **** //    int TurnedON=0;
  34:main.c        ****     /* Start SPI Master */
  35:main.c        ****     SPIM_1_Start();
  51              		.loc 1 35 0
  52 000a FFF7FEFF 		bl	SPIM_1_Start
  53              	.LVL1:
  36:main.c        ****     SPIM_2_Start();
  54              		.loc 1 36 0
  55 000e FFF7FEFF 		bl	SPIM_2_Start
  56              	.LVL2:
  37:main.c        ****     isr_1_StartEx(Custom_isr_1);
  57              		.loc 1 37 0
  58 0012 7A48     		ldr	r0, .L17
  59 0014 FFF7FEFF 		bl	isr_1_StartEx
  60              	.LVL3:
  38:main.c        ****     CyDelay(5); //"The boot procedure is complete about 5 milliseconds after device power-up."
  61              		.loc 1 38 0
  62 0018 0520     		movs	r0, #5
  63 001a FFF7FEFF 		bl	CyDelay
  64              	.LVL4:
  39:main.c        **** //    isr_MENU_StartEx(Custom_ISR_MENU);
  40:main.c        ****     /*Selection of the sampling frequency in Normal Mode*/
  41:main.c        ****     uint8_t ctrl_reg1 =0;
  42:main.c        ****     /* 1Hz */
  43:main.c        ****     
  44:main.c        ****     ctrl_reg1 = ACC_readByte(LIS3DH_CTRL_REG1);
  65              		.loc 1 44 0
  66 001e 2020     		movs	r0, #32
  67 0020 FFF7FEFF 		bl	ACC_readByte
  68              	.LVL5:
  45:main.c        ****     if (ctrl_reg1 != LIS3DH_1HZ_CTRL_REG1) 
  69              		.loc 1 45 0
ARM GAS  C:\Users\gaeta\AppData\Local\Temp\ccBSyW6V.s 			page 3


  70 0024 1728     		cmp	r0, #23
  71 0026 03D0     		beq	.L2
  72              	.LVL6:
  46:main.c        ****     {
  47:main.c        ****         ctrl_reg1 = LIS3DH_1HZ_CTRL_REG1;
  48:main.c        ****         ACC_writeByte(LIS3DH_CTRL_REG1,ctrl_reg1);
  73              		.loc 1 48 0
  74 0028 1721     		movs	r1, #23
  75 002a 2020     		movs	r0, #32
  76 002c FFF7FEFF 		bl	ACC_writeByte
  77              	.LVL7:
  78              	.L2:
  49:main.c        ****     }
  50:main.c        ****     
  51:main.c        **** //    /* 10Hz */
  52:main.c        **** //    ctrl_reg1 = ACC_readByte(LIS3DH_CTRL_REG1);
  53:main.c        **** //    if (ctrl_reg1 != LIS3DH_10HZ_CTRL_REG1) 
  54:main.c        **** //    {
  55:main.c        **** //        ctrl_reg1 = LIS3DH_10HZ_CTRL_REG1;
  56:main.c        **** //        ACC_writeByte(LIS3DH_CTRL_REG1,ctrl_reg1);
  57:main.c        **** //    }
  58:main.c        **** //    
  59:main.c        **** //    /* 25Hz */
  60:main.c        **** //    ctrl_reg1 = ACC_readByte(LIS3DH_CTRL_REG1);
  61:main.c        **** //    if (ctrl_reg1 != LIS3DH_25HZ_CTRL_REG1) 
  62:main.c        **** //    {
  63:main.c        **** //        ctrl_reg1 = LIS3DH_25HZ_CTRL_REG1;
  64:main.c        **** //        ACC_writeByte(LIS3DH_CTRL_REG1,ctrl_reg1);
  65:main.c        **** //    }
  66:main.c        **** //    
  67:main.c        **** //    /* 50Hz */
  68:main.c        **** //    ctrl_reg1 = ACC_readByte(LIS3DH_CTRL_REG1);
  69:main.c        **** //    if (ctrl_reg1 != LIS3DH_50HZ_CTRL_REG1) 
  70:main.c        **** //    {
  71:main.c        **** //        ctrl_reg1 = LIS3DH_50HZ_CTRL_REG1;
  72:main.c        **** //        ACC_writeByte(LIS3DH_CTRL_REG1,ctrl_reg1);
  73:main.c        **** //    }
  74:main.c        ****     
  75:main.c        ****      /* FIFO overrun interrupt on INT1 */
  76:main.c        ****     uint8_t ctrl_reg3 = 0;
  77:main.c        ****     ctrl_reg3 = ACC_readByte(LIS3DH_CTRL_REG3);
  79              		.loc 1 77 0
  80 0030 2220     		movs	r0, #34
  81 0032 FFF7FEFF 		bl	ACC_readByte
  82              	.LVL8:
  78:main.c        ****     if (ctrl_reg3 != LIS3DH_I1_WTM_OVR_CTRL_REG3)
  83              		.loc 1 78 0
  84 0036 0628     		cmp	r0, #6
  85 0038 03D0     		beq	.L3
  86              	.LVL9:
  79:main.c        ****     {
  80:main.c        ****         ctrl_reg3 = LIS3DH_I1_WTM_OVR_CTRL_REG3;
  81:main.c        ****         ACC_writeByte(LIS3DH_CTRL_REG3,ctrl_reg3);
  87              		.loc 1 81 0
  88 003a 0621     		movs	r1, #6
  89 003c 2220     		movs	r0, #34
  90 003e FFF7FEFF 		bl	ACC_writeByte
ARM GAS  C:\Users\gaeta\AppData\Local\Temp\ccBSyW6V.s 			page 4


  91              	.LVL10:
  92              	.L3:
  82:main.c        ****     }
  83:main.c        ****     
  84:main.c        ****     /*Setting Control Register 4, Full Scale Range*/
  85:main.c        ****     uint8_t ctrl_reg4 = ACC_readByte(LIS3DH_CTRL_REG4);
  93              		.loc 1 85 0
  94 0042 2320     		movs	r0, #35
  95 0044 FFF7FEFF 		bl	ACC_readByte
  96              	.LVL11:
  86:main.c        ****     
  87:main.c        ****     /*Defining sensitivity*/
  88:main.c        ****     int s; 
  89:main.c        ****     
  90:main.c        ****     if(ctrl_reg4 != LIS3DH_2G_CTRL_REG4)
  97              		.loc 1 90 0
  98 0048 8028     		cmp	r0, #128
  99 004a 03D0     		beq	.L4
 100              	.LVL12:
  91:main.c        ****     {
  92:main.c        ****         ctrl_reg4 = LIS3DH_2G_CTRL_REG4;
  93:main.c        ****         ACC_writeByte(LIS3DH_CTRL_REG4,ctrl_reg4);
 101              		.loc 1 93 0
 102 004c 8021     		movs	r1, #128
 103 004e 2320     		movs	r0, #35
 104 0050 FFF7FEFF 		bl	ACC_writeByte
 105              	.LVL13:
 106              	.L4:
  94:main.c        ****         s =4;
  95:main.c        ****     }
  96:main.c        ****     
  97:main.c        **** //    if(ctrl_reg4 != LIS3DH_4G_CTRL_REG4)
  98:main.c        **** //    {
  99:main.c        **** //        ctrl_reg4 = LIS3DH_4G_CTRL_REG4;
 100:main.c        **** //        ACC_writeByte(LIS3DH_CTRL_REG4,ctrl_reg4);
 101:main.c        **** //        s=8;
 102:main.c        **** //    }
 103:main.c        **** //    
 104:main.c        **** //     if(ctrl_reg4 != LIS3DH_8G_CTRL_REG4)
 105:main.c        **** //    {
 106:main.c        **** //        ctrl_reg4 = LIS3DH_8G_CTRL_REG4;
 107:main.c        **** //        ACC_writeByte(LIS3DH_CTRL_REG4,ctrl_reg4);
 108:main.c        **** //        s=16;
 109:main.c        **** //    }
 110:main.c        **** //    
 111:main.c        **** //     if(ctrl_reg4 != LIS3DH_16G_CTRL_REG4)
 112:main.c        **** //    {
 113:main.c        **** //        ctrl_reg4 = LIS3DH_16G_CTRL_REG4;
 114:main.c        **** //        ACC_writeByte(LIS3DH_CTRL_REG4,ctrl_reg4);
 115:main.c        **** //        s=48;
 116:main.c        **** //    }
 117:main.c        ****     
 118:main.c        ****     
 119:main.c        ****     /*Enable FIFO Mode */
 120:main.c        ****     uint8_t ctrl_reg5 = ACC_readByte(LIS3DH_CTRL_REG5);
 107              		.loc 1 120 0
 108 0054 2420     		movs	r0, #36
ARM GAS  C:\Users\gaeta\AppData\Local\Temp\ccBSyW6V.s 			page 5


 109 0056 FFF7FEFF 		bl	ACC_readByte
 110              	.LVL14:
 121:main.c        ****     if (ctrl_reg5 != LIS3DH_FIFO_ENABLE_CTRL_REG5)
 111              		.loc 1 121 0
 112 005a 4028     		cmp	r0, #64
 113 005c 03D0     		beq	.L5
 114              	.LVL15:
 122:main.c        ****     {
 123:main.c        ****         ctrl_reg5 = LIS3DH_FIFO_ENABLE_CTRL_REG5;
 124:main.c        ****         ACC_writeByte(LIS3DH_CTRL_REG5,ctrl_reg5);
 115              		.loc 1 124 0
 116 005e 4021     		movs	r1, #64
 117 0060 2420     		movs	r0, #36
 118 0062 FFF7FEFF 		bl	ACC_writeByte
 119              	.LVL16:
 120              	.L5:
 125:main.c        ****     }
 126:main.c        ****     
 127:main.c        ****     /* FIFO Mode Selection */
 128:main.c        ****     uint8_t fifo_reg = 0;
 129:main.c        ****     /*FIFO */
 130:main.c        ****     fifo_reg = ACC_readByte(LIS3DH_FIFO_CTRL_REG);
 121              		.loc 1 130 0
 122 0066 2E20     		movs	r0, #46
 123 0068 FFF7FEFF 		bl	ACC_readByte
 124              	.LVL17:
 131:main.c        ****     if( fifo_reg != LIS3DH_FIFO_MODE_CTRL_REG) 
 125              		.loc 1 131 0
 126 006c 4028     		cmp	r0, #64
 127 006e 03D0     		beq	.L6
 128              	.LVL18:
 132:main.c        ****     {
 133:main.c        ****         fifo_reg = LIS3DH_FIFO_MODE_CTRL_REG;
 134:main.c        ****         ACC_writeByte(LIS3DH_FIFO_CTRL_REG,fifo_reg);
 129              		.loc 1 134 0
 130 0070 4021     		movs	r1, #64
 131 0072 2E20     		movs	r0, #46
 132 0074 FFF7FEFF 		bl	ACC_writeByte
 133              	.LVL19:
 134              	.L6:
 135:main.c        ****     }
 136:main.c        ****     
 137:main.c        ****     
 138:main.c        ****      /*WTM 10 */
 139:main.c        ****     fifo_reg = ACC_readByte(LIS3DH_FIFO_CTRL_REG);
 135              		.loc 1 139 0
 136 0078 2E20     		movs	r0, #46
 137 007a FFF7FEFF 		bl	ACC_readByte
 138              	.LVL20:
 140:main.c        ****     if( fifo_reg != LIS3DH_WTM10_MODE_CTRL_REG5) 
 139              		.loc 1 140 0
 140 007e 4A28     		cmp	r0, #74
 141 0080 03D0     		beq	.L7
 142              	.LVL21:
 141:main.c        ****     {
 142:main.c        ****         fifo_reg = LIS3DH_WTM10_MODE_CTRL_REG5;
 143:main.c        ****         ACC_writeByte(LIS3DH_FIFO_CTRL_REG,fifo_reg);
ARM GAS  C:\Users\gaeta\AppData\Local\Temp\ccBSyW6V.s 			page 6


 143              		.loc 1 143 0
 144 0082 4A21     		movs	r1, #74
 145 0084 2E20     		movs	r0, #46
 146 0086 FFF7FEFF 		bl	ACC_writeByte
 147              	.LVL22:
 148              	.L7:
 144:main.c        ****     }
 145:main.c        ****     
 146:main.c        ****     uint8_t ReadData[60];
 147:main.c        ****     uint8_t TransferData[3];
 148:main.c        ****     int16_t i=0,j=0,k=0,m=0;
 149:main.c        ****     int16_t OutX,OutY,OutZ;
 150:main.c        ****     uint8_t Packet[40],Packet_Read[40];
 151:main.c        ****     int16_t samples=0;
 152:main.c        ****     int16_t X,Y,Z;
 153:main.c        ****     uint8_t header = 0xA0;
 154:main.c        ****     uint8_t footer = 0xC0;
 155:main.c        ****     int32_t OutX32,OutY32,OutZ32; //int32 values of acceleration after the cast of the floating poi
 156:main.c        ****     float32 AccX,AccY,AccZ; //floating point values in m/s^2
 157:main.c        ****     uint8_t OutArray[14]; // 6 bytes for the Output data + 1 byte for Header + 1 for the footer
 158:main.c        ****     OutArray[0] = header;
 159:main.c        ****     OutArray[7] = footer;
 160:main.c        ****     int flag=0;
 149              		.loc 1 160 0
 150 008a 0025     		movs	r5, #0
 151:main.c        ****     int16_t X,Y,Z;
 151              		.loc 1 151 0
 152 008c 2F46     		mov	r7, r5
 153              	.LVL23:
 154              	.L13:
 161:main.c        ****     for(;;)
 162:main.c        ****     {
 163:main.c        ****         if(flag<2){
 155              		.loc 1 163 0
 156 008e 012D     		cmp	r5, #1
 157 0090 79DC     		bgt	.L8
 164:main.c        ****         if( giro==1)
 158              		.loc 1 164 0
 159 0092 5B4B     		ldr	r3, .L17+4
 160 0094 1B68     		ldr	r3, [r3]
 161 0096 012B     		cmp	r3, #1
 162 0098 75D1     		bne	.L8
 165:main.c        ****         {
 166:main.c        ****             ACC_readMultibytes(LIS3DH_OUT_X_L, &ReadData[0],60);
 163              		.loc 1 166 0
 164 009a 3C22     		movs	r2, #60
 165 009c 17A9     		add	r1, sp, #92
 166 009e 2820     		movs	r0, #40
 167 00a0 FFF7FEFF 		bl	ACC_readMultibytes
 168              	.LVL24:
 167:main.c        ****            
 168:main.c        ****             for ( i=0; i<60; i+=6)
 169              		.loc 1 168 0
 170 00a4 0021     		movs	r1, #0
 171 00a6 0C46     		mov	r4, r1
 172 00a8 54E0     		b	.L9
 173              	.LVL25:
ARM GAS  C:\Users\gaeta\AppData\Local\Temp\ccBSyW6V.s 			page 7


 174              	.L10:
 169:main.c        ****             {
 170:main.c        ****                   
 171:main.c        ****                 OutX = (int16)((ReadData[i] | (ReadData[i+1]<<8)))>>6;
 175              		.loc 1 171 0 discriminator 3
 176 00aa 26AB     		add	r3, sp, #152
 177 00ac 2344     		add	r3, r3, r4
 178 00ae 13F83C3C 		ldrb	r3, [r3, #-60]	@ zero_extendqisi2
 179 00b2 621C     		adds	r2, r4, #1
 180 00b4 26A8     		add	r0, sp, #152
 181 00b6 0244     		add	r2, r2, r0
 182 00b8 12F83C0C 		ldrb	r0, [r2, #-60]	@ zero_extendqisi2
 183 00bc 43EA0020 		orr	r0, r3, r0, lsl #8
 184 00c0 40F38910 		sbfx	r0, r0, #6, #10
 185              	.LVL26:
 172:main.c        ****                 OutY = (int16)((ReadData[i+2] | (ReadData[i+3]<<8)))>>6;
 186              		.loc 1 172 0 discriminator 3
 187 00c4 A31C     		adds	r3, r4, #2
 188 00c6 26AA     		add	r2, sp, #152
 189 00c8 1344     		add	r3, r3, r2
 190 00ca 13F83C3C 		ldrb	r3, [r3, #-60]	@ zero_extendqisi2
 191 00ce E21C     		adds	r2, r4, #3
 192 00d0 26AE     		add	r6, sp, #152
 193 00d2 3244     		add	r2, r2, r6
 194 00d4 12F83C2C 		ldrb	r2, [r2, #-60]	@ zero_extendqisi2
 195 00d8 43EA0222 		orr	r2, r3, r2, lsl #8
 196 00dc 42F38912 		sbfx	r2, r2, #6, #10
 197              	.LVL27:
 173:main.c        ****                 OutZ = (int16)((ReadData[i+4] | (ReadData[i+5]<<8)))>>6;               
 198              		.loc 1 173 0 discriminator 3
 199 00e0 231D     		adds	r3, r4, #4
 200 00e2 3344     		add	r3, r3, r6
 201 00e4 13F83C3C 		ldrb	r3, [r3, #-60]	@ zero_extendqisi2
 202 00e8 661D     		adds	r6, r4, #5
 203 00ea 0DF1980E 		add	lr, sp, #152
 204 00ee 7644     		add	r6, r6, lr
 205 00f0 16F83C6C 		ldrb	r6, [r6, #-60]	@ zero_extendqisi2
 206 00f4 43EA0623 		orr	r3, r3, r6, lsl #8
 207 00f8 43F38913 		sbfx	r3, r3, #6, #10
 208              	.LVL28:
 174:main.c        ****                 Packet[j]= OutX>>4;
 209              		.loc 1 174 0 discriminator 3
 210 00fc 7646     		mov	r6, lr
 211 00fe 0E44     		add	r6, r6, r1
 212 0100 4FEA201E 		asr	lr, r0, #4
 213 0104 06F864EC 		strb	lr, [r6, #-100]
 175:main.c        ****                 Packet[j+1] = (OutX<<6 | OutY>>6);
 214              		.loc 1 175 0 discriminator 3
 215 0108 4E1C     		adds	r6, r1, #1
 216 010a 0DF1980E 		add	lr, sp, #152
 217 010e 7644     		add	r6, r6, lr
 218 0110 4FEAA21E 		asr	lr, r2, #6
 219 0114 4EEA8010 		orr	r0, lr, r0, lsl #6
 220              	.LVL29:
 221 0118 06F8640C 		strb	r0, [r6, #-100]
 176:main.c        ****                 Packet[j+2] = (OutY<<4 | OutZ>>8);
 222              		.loc 1 176 0 discriminator 3
ARM GAS  C:\Users\gaeta\AppData\Local\Temp\ccBSyW6V.s 			page 8


 223 011c 881C     		adds	r0, r1, #2
 224 011e 26AE     		add	r6, sp, #152
 225              	.LVL30:
 226 0120 3044     		add	r0, r0, r6
 227 0122 1E12     		asrs	r6, r3, #8
 228              	.LVL31:
 229 0124 46EA0212 		orr	r2, r6, r2, lsl #4
 230              	.LVL32:
 231 0128 00F8642C 		strb	r2, [r0, #-100]
 177:main.c        ****                 Packet[j+3] = (OutZ);
 232              		.loc 1 177 0 discriminator 3
 233 012c CA1C     		adds	r2, r1, #3
 234 012e 26A8     		add	r0, sp, #152
 235              	.LVL33:
 236 0130 0244     		add	r2, r2, r0
 237 0132 02F8643C 		strb	r3, [r2, #-100]
 178:main.c        ****                 EEPROM_writePage((0x0001+j+samples),& Packet[j],4);
 238              		.loc 1 178 0 discriminator 3
 239 0136 8EB2     		uxth	r6, r1
 240 0138 F019     		adds	r0, r6, r7
 241              	.LVL34:
 242 013a 0130     		adds	r0, r0, #1
 243 013c 0422     		movs	r2, #4
 244 013e 0DAB     		add	r3, sp, #52
 245              	.LVL35:
 246 0140 1944     		add	r1, r1, r3
 247              	.LVL36:
 248 0142 80B2     		uxth	r0, r0
 249 0144 FFF7FEFF 		bl	EEPROM_writePage
 250              	.LVL37:
 179:main.c        ****                 EEPROM_waitForWriteComplete();
 251              		.loc 1 179 0 discriminator 3
 252 0148 FFF7FEFF 		bl	EEPROM_waitForWriteComplete
 253              	.LVL38:
 180:main.c        ****                 j+=4;
 254              		.loc 1 180 0 discriminator 3
 255 014c 311D     		adds	r1, r6, #4
 256 014e 09B2     		sxth	r1, r1
 257              	.LVL39:
 168:main.c        ****             {
 258              		.loc 1 168 0 discriminator 3
 259 0150 0634     		adds	r4, r4, #6
 260              	.LVL40:
 261 0152 24B2     		sxth	r4, r4
 262              	.LVL41:
 263              	.L9:
 168:main.c        ****             {
 264              		.loc 1 168 0 is_stmt 0 discriminator 1
 265 0154 3B2C     		cmp	r4, #59
 266 0156 A8DD     		ble	.L10
 267              	.LVL42:
 181:main.c        ****             
 182:main.c        ****             }
 183:main.c        ****             
 184:main.c        ****             j=0;
 185:main.c        ****             i=0;
 186:main.c        ****             /*Bypass Mode */
ARM GAS  C:\Users\gaeta\AppData\Local\Temp\ccBSyW6V.s 			page 9


 187:main.c        ****             fifo_reg = ACC_readByte(LIS3DH_FIFO_CTRL_REG);
 268              		.loc 1 187 0 is_stmt 1
 269 0158 2E20     		movs	r0, #46
 270 015a FFF7FEFF 		bl	ACC_readByte
 271              	.LVL43:
 188:main.c        ****             if( fifo_reg != LIS3DH_BYPASS_MODE_CTRL_REG) 
 272              		.loc 1 188 0
 273 015e 18B1     		cbz	r0, .L11
 274              	.LVL44:
 189:main.c        ****             {
 190:main.c        ****                 fifo_reg = LIS3DH_BYPASS_MODE_CTRL_REG;
 191:main.c        ****                 ACC_writeByte(LIS3DH_FIFO_CTRL_REG,fifo_reg);
 275              		.loc 1 191 0
 276 0160 0021     		movs	r1, #0
 277 0162 2E20     		movs	r0, #46
 278 0164 FFF7FEFF 		bl	ACC_writeByte
 279              	.LVL45:
 280              	.L11:
 192:main.c        ****             }
 193:main.c        ****             /*FIFO */
 194:main.c        ****             fifo_reg = ACC_readByte(LIS3DH_FIFO_CTRL_REG);
 281              		.loc 1 194 0
 282 0168 2E20     		movs	r0, #46
 283 016a FFF7FEFF 		bl	ACC_readByte
 284              	.LVL46:
 195:main.c        ****             if( fifo_reg != LIS3DH_FIFO_MODE_CTRL_REG) 
 285              		.loc 1 195 0
 286 016e 4028     		cmp	r0, #64
 287 0170 03D0     		beq	.L12
 288              	.LVL47:
 196:main.c        ****             {
 197:main.c        ****                 fifo_reg = LIS3DH_FIFO_MODE_CTRL_REG;
 198:main.c        ****                 ACC_writeByte(LIS3DH_FIFO_CTRL_REG,fifo_reg);
 289              		.loc 1 198 0
 290 0172 4021     		movs	r1, #64
 291 0174 2E20     		movs	r0, #46
 292 0176 FFF7FEFF 		bl	ACC_writeByte
 293              	.LVL48:
 294              	.L12:
 199:main.c        ****             }
 200:main.c        ****             samples +=10;
 295              		.loc 1 200 0
 296 017a 0A37     		adds	r7, r7, #10
 297              	.LVL49:
 298 017c 3FB2     		sxth	r7, r7
 299              	.LVL50:
 201:main.c        ****             flag+=1;
 300              		.loc 1 201 0
 301 017e 0135     		adds	r5, r5, #1
 302              	.LVL51:
 202:main.c        ****             giro = 0;
 303              		.loc 1 202 0
 304 0180 0022     		movs	r2, #0
 305 0182 1F4B     		ldr	r3, .L17+4
 306 0184 1A60     		str	r2, [r3]
 307              	.L8:
 203:main.c        ****         }
ARM GAS  C:\Users\gaeta\AppData\Local\Temp\ccBSyW6V.s 			page 10


 204:main.c        ****         }
 205:main.c        ****         
 206:main.c        ****         if(flag==2)
 308              		.loc 1 206 0
 309 0186 022D     		cmp	r5, #2
 310 0188 81D1     		bne	.L13
 207:main.c        ****             {
 208:main.c        ****             
 209:main.c        ****                 EEPROM_readPage(0x0001,&Packet_Read[0],80);
 311              		.loc 1 209 0
 312 018a 5022     		movs	r2, #80
 313 018c 03A9     		add	r1, sp, #12
 314 018e 0120     		movs	r0, #1
 315 0190 FFF7FEFF 		bl	EEPROM_readPage
 316              	.LVL52:
 210:main.c        ****                
 211:main.c        ****             for(k=0;k<80;k+=4){
 317              		.loc 1 211 0
 318 0194 0024     		movs	r4, #0
 319 0196 2CE0     		b	.L14
 320              	.LVL53:
 321              	.L15:
 212:main.c        ****                 
 213:main.c        ****                 X= (((Packet_Read[k+1] & 0xF0)>>4)| Packet_Read[k]<<4);
 322              		.loc 1 213 0 discriminator 3
 323 0198 631C     		adds	r3, r4, #1
 324 019a 26AA     		add	r2, sp, #152
 325 019c 1344     		add	r3, r3, r2
 326 019e 13F88C5C 		ldrb	r5, [r3, #-140]	@ zero_extendqisi2
 327 01a2 1346     		mov	r3, r2
 328 01a4 2344     		add	r3, r3, r4
 329 01a6 13F88C2C 		ldrb	r2, [r3, #-140]	@ zero_extendqisi2
 330 01aa 1201     		lsls	r2, r2, #4
 331              	.LVL54:
 214:main.c        ****                 AccX=  X*2*9.806*0.001; // Multiply the value for 2 because the sensitivity is 2 mg
 215:main.c        ****                         OutX32 =  AccX*1000; //Cast the floating point value to an int32 
 216:main.c        ****                                                    //without loosing information of 3 decimals usin
 217:main.c        ****                     OutArray[1] = (uint8_t)(OutX32 & 0xFF);
 218:main.c        ****                     OutArray[2] = (uint8_t)(OutX32 >>8);
 219:main.c        ****                     OutArray[3] = (uint8_t)(OutX32 >>16);
 220:main.c        ****                     OutArray[4] = (uint8_t)(OutX32 >>24);
 221:main.c        ****                 Y= ((Packet_Read[k+2]>>2)|(((Packet_Read[k+1]& 0x0F))<<6));
 332              		.loc 1 221 0 discriminator 3
 333 01ac A31C     		adds	r3, r4, #2
 334 01ae 26A9     		add	r1, sp, #152
 335 01b0 0B44     		add	r3, r3, r1
 336 01b2 13F88C7C 		ldrb	r7, [r3, #-140]	@ zero_extendqisi2
 337 01b6 AB01     		lsls	r3, r5, #6
 338 01b8 03F47073 		and	r3, r3, #960
 339              	.LVL55:
 222:main.c        ****                 AccY = Y*2*9.806*0.001; // Multiply the value for  2 because the sensitivity is 2 m
 223:main.c        ****                         OutY32 = AccY*1000; //Cast the floating point value to an int32 
 224:main.c        ****                                                   //without loosing information of 3 decimals using
 225:main.c        ****                         OutArray[5] = (uint8_t)(OutY32 & 0xFF);
 226:main.c        ****                         OutArray[6] = (uint8_t)(OutY32 >> 8);
 227:main.c        ****                         OutArray[7] = (uint8_t)(OutY32 >>16);
 228:main.c        ****                         OutArray[8] = (uint8_t)(OutY32 >>24);
ARM GAS  C:\Users\gaeta\AppData\Local\Temp\ccBSyW6V.s 			page 11


 229:main.c        ****                         
 230:main.c        ****             Z= ((Packet_Read[k+3]|(Packet_Read[k+2]& 0x03)<<8));
 340              		.loc 1 230 0 discriminator 3
 341 01bc E11C     		adds	r1, r4, #3
 342 01be 26A8     		add	r0, sp, #152
 343 01c0 0144     		add	r1, r1, r0
 344 01c2 11F88C0C 		ldrb	r0, [r1, #-140]	@ zero_extendqisi2
 345 01c6 3902     		lsls	r1, r7, #8
 346 01c8 01F44071 		and	r1, r1, #768
 347 01cc 0143     		orrs	r1, r1, r0
 348              	.LVL56:
 231:main.c        ****              AccZ = Z*2*9.806*0.001; // Multiply the value for 2 because the sensitivity is 2 mg/di
 232:main.c        ****                         OutZ32 = AccZ*1000;//Cast the floating point value to an int32 
 233:main.c        ****                                                //without loosing information of 3 decimals using th
 234:main.c        ****                         OutArray[9] = (uint8_t)(OutZ32 & 0xFF);
 235:main.c        ****                         OutArray[10] =(uint8_t)(OutZ32 >> 8);
 236:main.c        ****                         OutArray[11] = (uint8_t)(OutZ32 >>16);
 237:main.c        ****                         OutArray[12] = (uint8_t)(OutZ32 >>24);
 238:main.c        ****          
 239:main.c        ****             
 240:main.c        ****             sprintf(bufferUART, "** EEPROM Read = %d %d %d \r\n", X,Y,Z);
 349              		.loc 1 240 0 discriminator 3
 350 01ce 0D4E     		ldr	r6, .L17+8
 351 01d0 0091     		str	r1, [sp]
 352 01d2 43EA9703 		orr	r3, r3, r7, lsr #2
 353              	.LVL57:
 354 01d6 42EA1512 		orr	r2, r2, r5, lsr #4
 355              	.LVL58:
 356 01da 0B49     		ldr	r1, .L17+12
 357              	.LVL59:
 358 01dc 3046     		mov	r0, r6
 359 01de FFF7FEFF 		bl	sprintf
 360              	.LVL60:
 241:main.c        ****             UART_PutBuffer;
 361              		.loc 1 241 0 discriminator 3
 362 01e2 3046     		mov	r0, r6
 363 01e4 FFF7FEFF 		bl	UART_PutString
 364              	.LVL61:
 242:main.c        ****             
 243:main.c        ****             UART_PutString("*************************************\r\n");
 365              		.loc 1 243 0 discriminator 3
 366 01e8 0848     		ldr	r0, .L17+16
 367 01ea FFF7FEFF 		bl	UART_PutString
 368              	.LVL62:
 211:main.c        ****                 
 369              		.loc 1 211 0 discriminator 3
 370 01ee 0434     		adds	r4, r4, #4
 371              	.LVL63:
 372 01f0 24B2     		sxth	r4, r4
 373              	.LVL64:
 374              	.L14:
 211:main.c        ****                 
 375              		.loc 1 211 0 is_stmt 0 discriminator 1
 376 01f2 4F2C     		cmp	r4, #79
 377 01f4 D0DD     		ble	.L15
 244:main.c        ****             
 245:main.c        **** //            return 0;
ARM GAS  C:\Users\gaeta\AppData\Local\Temp\ccBSyW6V.s 			page 12


 246:main.c        **** //            UART_PutArray(OutArray, 8); //Send data to Uart (values in [mg])
 247:main.c        ****                    
 248:main.c        ****         }
 249:main.c        ****             return 0;
 250:main.c        ****     }
 251:main.c        ****     }
 252:main.c        **** }
 378              		.loc 1 252 0 is_stmt 1
 379 01f6 0020     		movs	r0, #0
 380 01f8 27B0     		add	sp, sp, #156
 381              		.cfi_def_cfa_offset 20
 382              		@ sp needed
 383 01fa F0BD     		pop	{r4, r5, r6, r7, pc}
 384              	.LVL65:
 385              	.L18:
 386              		.align	2
 387              	.L17:
 388 01fc 00000000 		.word	Custom_isr_1
 389 0200 00000000 		.word	giro
 390 0204 00000000 		.word	bufferUART
 391 0208 00000000 		.word	.LC0
 392 020c 20000000 		.word	.LC1
 393              		.cfi_endproc
 394              	.LFE64:
 395              		.size	main, .-main
 396              		.comm	bufferUART,100,4
 397              		.comm	MenuActive,4,4
 398              		.comm	LoopContinue,4,4
 399              		.comm	ch_received,1,1
 400              		.comm	PacketReadyFlag,1,1
 401              		.comm	DataBuffer,4,4
 402              		.section	.rodata.str1.4,"aMS",%progbits,1
 403              		.align	2
 404              	.LC0:
 405 0000 2A2A2045 		.ascii	"** EEPROM Read = %d %d %d \015\012\000"
 405      4550524F 
 405      4D205265 
 405      6164203D 
 405      20256420 
 406 001d 000000   		.space	3
 407              	.LC1:
 408 0020 2A2A2A2A 		.ascii	"*************************************\015\012\000"
 408      2A2A2A2A 
 408      2A2A2A2A 
 408      2A2A2A2A 
 408      2A2A2A2A 
 409              		.text
 410              	.Letext0:
 411              		.file 2 "c:\\program files (x86)\\cypress\\psoc creator\\4.3\\psoc creator\\import\\gnu\\arm\\5.4.
 412              		.file 3 "c:\\program files (x86)\\cypress\\psoc creator\\4.3\\psoc creator\\import\\gnu\\arm\\5.4.
 413              		.file 4 "Generated_Source\\PSoC5/cytypes.h"
 414              		.file 5 "Generated_Source\\PSoC5/core_cm3.h"
 415              		.file 6 "InterruptRoutines.h"
 416              		.file 7 "Menu_Functions.h"
 417              		.file 8 "Generated_Source\\PSoC5/UART.h"
 418              		.file 9 "Generated_Source\\PSoC5/SPIM_1.h"
 419              		.file 10 "Generated_Source\\PSoC5/SPIM_2.h"
ARM GAS  C:\Users\gaeta\AppData\Local\Temp\ccBSyW6V.s 			page 13


 420              		.file 11 "Generated_Source\\PSoC5/isr_1.h"
 421              		.file 12 "Generated_Source\\PSoC5/CyLib.h"
 422              		.file 13 "LIS3DH.h"
 423              		.file 14 "25LC256.h"
 424              		.file 15 "c:\\program files (x86)\\cypress\\psoc creator\\4.3\\psoc creator\\import\\gnu\\arm\\5.4