ARM GAS  C:\Users\gaeta\AppData\Local\Temp\cc1gLEEn.s 			page 1


   1              		.syntax unified
   2              		.cpu cortex-m3
   3              		.fpu softvfp
   4              		.eabi_attribute 20, 1
   5              		.eabi_attribute 21, 1
   6              		.eabi_attribute 23, 3
   7              		.eabi_attribute 24, 1
   8              		.eabi_attribute 25, 1
   9              		.eabi_attribute 26, 1
  10              		.eabi_attribute 30, 1
  11              		.eabi_attribute 34, 1
  12              		.eabi_attribute 18, 4
  13              		.thumb
  14              		.syntax unified
  15              		.file	"Menu_Functions.c"
  16              		.text
  17              	.Ltext0:
  18              		.cfi_sections	.debug_frame
  19              		.section	.text.Custom_ISR_MENU,"ax",%progbits
  20              		.align	2
  21              		.global	Custom_ISR_MENU
  22              		.thumb
  23              		.thumb_func
  24              		.type	Custom_ISR_MENU, %function
  25              	Custom_ISR_MENU:
  26              	.LFB64:
  27              		.file 1 "Menu_Functions.c"
   1:Menu_Functions.c **** /* ========================================
   2:Menu_Functions.c ****  *
   3:Menu_Functions.c ****  * Copyright YOUR COMPANY, THE YEAR
   4:Menu_Functions.c ****  * All Rights Reserved
   5:Menu_Functions.c ****  * UNPUBLISHED, LICENSED SOFTWARE.
   6:Menu_Functions.c ****  *
   7:Menu_Functions.c ****  * CONFIDENTIAL AND PROPRIETARY INFORMATION
   8:Menu_Functions.c ****  * WHICH IS THE PROPERTY OF your company.
   9:Menu_Functions.c ****  *
  10:Menu_Functions.c ****  * ========================================
  11:Menu_Functions.c ****  *@authors Simone Fiorani, Alessandra Gargiulo, Gaetano Iannuzzi
  12:Menu_Functions.c ****  *@date 2020
  13:Menu_Functions.c **** */
  14:Menu_Functions.c **** 
  15:Menu_Functions.c **** 
  16:Menu_Functions.c **** #include    "project.h"
  17:Menu_Functions.c **** #include    "Menu_Functions.h"
  18:Menu_Functions.c **** 
  19:Menu_Functions.c **** uint8_t     reg_menu=0;
  20:Menu_Functions.c **** uint8_t     Sensitivity;
  21:Menu_Functions.c **** int         WaitTime=0;
  22:Menu_Functions.c **** 
  23:Menu_Functions.c **** CY_ISR (Custom_ISR_MENU)
  24:Menu_Functions.c **** {
  28              		.loc 1 24 0
  29              		.cfi_startproc
  30              		@ args = 0, pretend = 0, frame = 0
  31              		@ frame_needed = 0, uses_anonymous_args = 0
  32 0000 38B5     		push	{r3, r4, r5, lr}
  33              		.cfi_def_cfa_offset 16
ARM GAS  C:\Users\gaeta\AppData\Local\Temp\cc1gLEEn.s 			page 2


  34              		.cfi_offset 3, -16
  35              		.cfi_offset 4, -12
  36              		.cfi_offset 5, -8
  37              		.cfi_offset 14, -4
  25:Menu_Functions.c ****     ch_received = UART_GetChar();
  38              		.loc 1 25 0
  39 0002 FFF7FEFF 		bl	UART_GetChar
  40              	.LVL0:
  41 0006 B04B     		ldr	r3, .L69
  42 0008 1870     		strb	r0, [r3]
  26:Menu_Functions.c ****     
  27:Menu_Functions.c ****     if (ch_received == '?')
  43              		.loc 1 27 0
  44 000a 3F28     		cmp	r0, #63
  45 000c 09D1     		bne	.L2
  28:Menu_Functions.c ****     {
  29:Menu_Functions.c ****         UART_PutString("*********    HELP: POSSIBLE SETTINGS    *********\r\r");
  46              		.loc 1 29 0
  47 000e AF48     		ldr	r0, .L69+4
  48 0010 FFF7FEFF 		bl	UART_PutString
  49              	.LVL1:
  30:Menu_Functions.c ****         UART_PutString("f. Full Scale\r\np. Sampling Freq\r\nt. Set Temperature Unit\r\nv. Print Da
  50              		.loc 1 30 0
  51 0014 AE48     		ldr	r0, .L69+8
  52 0016 FFF7FEFF 		bl	UART_PutString
  53              	.LVL2:
  31:Menu_Functions.c ****         UART_PutString("***********************************************\r\n");
  54              		.loc 1 31 0
  55 001a AE48     		ldr	r0, .L69+12
  56 001c FFF7FEFF 		bl	UART_PutString
  57              	.LVL3:
  58 0020 38BD     		pop	{r3, r4, r5, pc}
  59              	.L2:
  32:Menu_Functions.c ****     }
  33:Menu_Functions.c ****     else if (ch_received == 'f' || ch_received == 'F')
  60              		.loc 1 33 0
  61 0022 6628     		cmp	r0, #102
  62 0024 02D0     		beq	.L4
  63              		.loc 1 33 0 is_stmt 0 discriminator 1
  64 0026 4628     		cmp	r0, #70
  65 0028 40F0C280 		bne	.L5
  66              	.L4:
  34:Menu_Functions.c ****     {
  35:Menu_Functions.c ****         UART_PutString("*********    CHOOSE ACCELEROMETER FULL SCALE    *********\r\r1. +-2g\r\n2. 
  67              		.loc 1 35 0 is_stmt 1
  68 002c AA48     		ldr	r0, .L69+16
  69 002e FFF7FEFF 		bl	UART_PutString
  70              	.LVL4:
  36:Menu_Functions.c ****         UART_PutString("*********************************************************\r\n");
  71              		.loc 1 36 0
  72 0032 AA48     		ldr	r0, .L69+20
  73 0034 FFF7FEFF 		bl	UART_PutString
  74              	.LVL5:
  37:Menu_Functions.c ****     
  38:Menu_Functions.c ****         while(!UART_GetRxBufferSize())
  75              		.loc 1 38 0
  76 0038 09E0     		b	.L6
ARM GAS  C:\Users\gaeta\AppData\Local\Temp\cc1gLEEn.s 			page 3


  77              	.L8:
  39:Menu_Functions.c ****         {
  40:Menu_Functions.c ****             CyDelay(10);
  78              		.loc 1 40 0
  79 003a 0A20     		movs	r0, #10
  80 003c FFF7FEFF 		bl	CyDelay
  81              	.LVL6:
  41:Menu_Functions.c ****             WaitTime++;
  82              		.loc 1 41 0
  83 0040 A74A     		ldr	r2, .L69+24
  84 0042 1368     		ldr	r3, [r2]
  85 0044 0133     		adds	r3, r3, #1
  86 0046 1360     		str	r3, [r2]
  42:Menu_Functions.c ****             if (WaitTime >= MAX_WAITTIME) break;
  87              		.loc 1 42 0
  88 0048 B3F57A7F 		cmp	r3, #1000
  89 004c 03DA     		bge	.L7
  90              	.L6:
  38:Menu_Functions.c ****         {
  91              		.loc 1 38 0
  92 004e FFF7FEFF 		bl	UART_GetRxBufferSize
  93              	.LVL7:
  94 0052 0028     		cmp	r0, #0
  95 0054 F1D0     		beq	.L8
  96              	.L7:
  43:Menu_Functions.c ****         }
  44:Menu_Functions.c ****         
  45:Menu_Functions.c ****         if (WaitTime >= MAX_WAITTIME)   ch_received = '5';
  97              		.loc 1 45 0
  98 0056 A24B     		ldr	r3, .L69+24
  99 0058 1B68     		ldr	r3, [r3]
 100 005a B3F57A7F 		cmp	r3, #1000
 101 005e 03DB     		blt	.L9
 102              		.loc 1 45 0 is_stmt 0 discriminator 1
 103 0060 3522     		movs	r2, #53
 104 0062 994B     		ldr	r3, .L69
 105 0064 1A70     		strb	r2, [r3]
 106 0066 03E0     		b	.L10
 107              	.L9:
  46:Menu_Functions.c ****         else                            ch_received = UART_GetChar();
 108              		.loc 1 46 0 is_stmt 1
 109 0068 FFF7FEFF 		bl	UART_GetChar
 110              	.LVL8:
 111 006c 964B     		ldr	r3, .L69
 112 006e 1870     		strb	r0, [r3]
 113              	.L10:
  47:Menu_Functions.c ****         
  48:Menu_Functions.c ****         WaitTime = 0;
 114              		.loc 1 48 0
 115 0070 0022     		movs	r2, #0
 116 0072 9B4B     		ldr	r3, .L69+24
 117 0074 1A60     		str	r2, [r3]
  49:Menu_Functions.c ****         
  50:Menu_Functions.c ****         UART_ClearRxBuffer();
 118              		.loc 1 50 0
 119 0076 FFF7FEFF 		bl	UART_ClearRxBuffer
 120              	.LVL9:
ARM GAS  C:\Users\gaeta\AppData\Local\Temp\cc1gLEEn.s 			page 4


  51:Menu_Functions.c ****                         
  52:Menu_Functions.c ****         switch (ch_received)
 121              		.loc 1 52 0
 122 007a 934B     		ldr	r3, .L69
 123 007c 1B78     		ldrb	r3, [r3]	@ zero_extendqisi2
 124 007e 313B     		subs	r3, r3, #49
 125 0080 042B     		cmp	r3, #4
 126 0082 00F29180 		bhi	.L11
 127 0086 DFE803F0 		tbb	[pc, r3]
 128              	.L13:
 129 008a 03       		.byte	(.L12-.L13)/2
 130 008b 25       		.byte	(.L14-.L13)/2
 131 008c 47       		.byte	(.L15-.L13)/2
 132 008d 69       		.byte	(.L16-.L13)/2
 133 008e 8B       		.byte	(.L17-.L13)/2
 134 008f 00       		.p2align 1
 135              	.L12:
  53:Menu_Functions.c ****             {
  54:Menu_Functions.c ****                 case '1':
  55:Menu_Functions.c ****                         
  56:Menu_Functions.c ****                     reg_menu = ACC_readByte(LIS3DH_CTRL_REG4);
 136              		.loc 1 56 0
 137 0090 2320     		movs	r0, #35
 138 0092 FFF7FEFF 		bl	ACC_readByte
 139              	.LVL10:
 140 0096 924B     		ldr	r3, .L69+24
 141 0098 1871     		strb	r0, [r3, #4]
  57:Menu_Functions.c ****                     if (reg_menu != LIS3DH_2G_CTRL_REG4) 
 142              		.loc 1 57 0
 143 009a 8028     		cmp	r0, #128
 144 009c 04D0     		beq	.L18
  58:Menu_Functions.c ****                     {
  59:Menu_Functions.c ****                         reg_menu = LIS3DH_2G_CTRL_REG4;
 145              		.loc 1 59 0
 146 009e 8021     		movs	r1, #128
 147 00a0 1971     		strb	r1, [r3, #4]
  60:Menu_Functions.c ****                         ACC_writeByte(LIS3DH_CTRL_REG4,reg_menu);
 148              		.loc 1 60 0
 149 00a2 2320     		movs	r0, #35
 150 00a4 FFF7FEFF 		bl	ACC_writeByte
 151              	.LVL11:
 152              	.L18:
  61:Menu_Functions.c ****                     }
  62:Menu_Functions.c ****                     
  63:Menu_Functions.c ****                     Sensitivity = 4;
 153              		.loc 1 63 0
 154 00a8 8E4D     		ldr	r5, .L69+28
 155 00aa 0424     		movs	r4, #4
 156 00ac 2C70     		strb	r4, [r5]
  64:Menu_Functions.c ****                     
  65:Menu_Functions.c ****                     EEPROM_writeByte(EEPROM_FULLSCALE_CONFIG, reg_menu);
 157              		.loc 1 65 0
 158 00ae 8C4B     		ldr	r3, .L69+24
 159 00b0 1979     		ldrb	r1, [r3, #4]	@ zero_extendqisi2
 160 00b2 0120     		movs	r0, #1
 161 00b4 FFF7FEFF 		bl	EEPROM_writeByte
 162              	.LVL12:
ARM GAS  C:\Users\gaeta\AppData\Local\Temp\cc1gLEEn.s 			page 5


  66:Menu_Functions.c ****                     EEPROM_waitForWriteComplete();
 163              		.loc 1 66 0
 164 00b8 FFF7FEFF 		bl	EEPROM_waitForWriteComplete
 165              	.LVL13:
  67:Menu_Functions.c ****                     EEPROM_writeByte(EEPROM_SENSITIVITY_VALUE, Sensitivity);
 166              		.loc 1 67 0
 167 00bc 2978     		ldrb	r1, [r5]	@ zero_extendqisi2
 168 00be 2046     		mov	r0, r4
 169 00c0 FFF7FEFF 		bl	EEPROM_writeByte
 170              	.LVL14:
  68:Menu_Functions.c ****                     EEPROM_waitForWriteComplete();
 171              		.loc 1 68 0
 172 00c4 FFF7FEFF 		bl	EEPROM_waitForWriteComplete
 173              	.LVL15:
  69:Menu_Functions.c ****                     
  70:Menu_Functions.c ****                     UART_PutString("YOU CHOOSE +-2g\r\r");
 174              		.loc 1 70 0
 175 00c8 8748     		ldr	r0, .L69+32
 176 00ca FFF7FEFF 		bl	UART_PutString
 177              	.LVL16:
  71:Menu_Functions.c ****                     
  72:Menu_Functions.c ****                     FIFO_Reset ();
 178              		.loc 1 72 0
 179 00ce FFF7FEFF 		bl	FIFO_Reset
 180              	.LVL17:
  73:Menu_Functions.c ****                     
  74:Menu_Functions.c ****                     break;
 181              		.loc 1 74 0
 182 00d2 38BD     		pop	{r3, r4, r5, pc}
 183              	.L14:
  75:Menu_Functions.c ****                 
  76:Menu_Functions.c ****                 case '2':
  77:Menu_Functions.c ****                     
  78:Menu_Functions.c ****                     reg_menu = ACC_readByte(LIS3DH_CTRL_REG4);
 184              		.loc 1 78 0
 185 00d4 2320     		movs	r0, #35
 186 00d6 FFF7FEFF 		bl	ACC_readByte
 187              	.LVL18:
 188 00da 814B     		ldr	r3, .L69+24
 189 00dc 1871     		strb	r0, [r3, #4]
  79:Menu_Functions.c ****                     if (reg_menu != LIS3DH_4G_CTRL_REG4) 
 190              		.loc 1 79 0
 191 00de 9028     		cmp	r0, #144
 192 00e0 04D0     		beq	.L19
  80:Menu_Functions.c ****                     {
  81:Menu_Functions.c ****                         reg_menu = LIS3DH_4G_CTRL_REG4;
 193              		.loc 1 81 0
 194 00e2 9021     		movs	r1, #144
 195 00e4 1971     		strb	r1, [r3, #4]
  82:Menu_Functions.c ****                         ACC_writeByte(LIS3DH_CTRL_REG4,reg_menu);
 196              		.loc 1 82 0
 197 00e6 2320     		movs	r0, #35
 198 00e8 FFF7FEFF 		bl	ACC_writeByte
 199              	.LVL19:
 200              	.L19:
  83:Menu_Functions.c ****                     }
  84:Menu_Functions.c ****                     
ARM GAS  C:\Users\gaeta\AppData\Local\Temp\cc1gLEEn.s 			page 6


  85:Menu_Functions.c ****                     Sensitivity = 8;
 201              		.loc 1 85 0
 202 00ec 7D4C     		ldr	r4, .L69+28
 203 00ee 0823     		movs	r3, #8
 204 00f0 2370     		strb	r3, [r4]
  86:Menu_Functions.c ****                     
  87:Menu_Functions.c ****                     EEPROM_writeByte(EEPROM_FULLSCALE_CONFIG, reg_menu);
 205              		.loc 1 87 0
 206 00f2 7B4B     		ldr	r3, .L69+24
 207 00f4 1979     		ldrb	r1, [r3, #4]	@ zero_extendqisi2
 208 00f6 0120     		movs	r0, #1
 209 00f8 FFF7FEFF 		bl	EEPROM_writeByte
 210              	.LVL20:
  88:Menu_Functions.c ****                     EEPROM_waitForWriteComplete();
 211              		.loc 1 88 0
 212 00fc FFF7FEFF 		bl	EEPROM_waitForWriteComplete
 213              	.LVL21:
  89:Menu_Functions.c ****                     EEPROM_writeByte(EEPROM_SENSITIVITY_VALUE, Sensitivity);
 214              		.loc 1 89 0
 215 0100 2178     		ldrb	r1, [r4]	@ zero_extendqisi2
 216 0102 0420     		movs	r0, #4
 217 0104 FFF7FEFF 		bl	EEPROM_writeByte
 218              	.LVL22:
  90:Menu_Functions.c ****                     EEPROM_waitForWriteComplete();
 219              		.loc 1 90 0
 220 0108 FFF7FEFF 		bl	EEPROM_waitForWriteComplete
 221              	.LVL23:
  91:Menu_Functions.c ****                     
  92:Menu_Functions.c ****                     UART_PutString("YOU CHOOSE +-4g\r\r");
 222              		.loc 1 92 0
 223 010c 7748     		ldr	r0, .L69+36
 224 010e FFF7FEFF 		bl	UART_PutString
 225              	.LVL24:
  93:Menu_Functions.c ****                     
  94:Menu_Functions.c ****                     FIFO_Reset ();
 226              		.loc 1 94 0
 227 0112 FFF7FEFF 		bl	FIFO_Reset
 228              	.LVL25:
  95:Menu_Functions.c ****                     
  96:Menu_Functions.c ****                     break;
 229              		.loc 1 96 0
 230 0116 38BD     		pop	{r3, r4, r5, pc}
 231              	.L15:
  97:Menu_Functions.c ****                 
  98:Menu_Functions.c ****                 case '3':
  99:Menu_Functions.c ****                     
 100:Menu_Functions.c ****                     reg_menu = ACC_readByte(LIS3DH_CTRL_REG4);
 232              		.loc 1 100 0
 233 0118 2320     		movs	r0, #35
 234 011a FFF7FEFF 		bl	ACC_readByte
 235              	.LVL26:
 236 011e 704B     		ldr	r3, .L69+24
 237 0120 1871     		strb	r0, [r3, #4]
 101:Menu_Functions.c ****                     if (reg_menu != LIS3DH_8G_CTRL_REG4) 
 238              		.loc 1 101 0
 239 0122 A028     		cmp	r0, #160
 240 0124 04D0     		beq	.L20
ARM GAS  C:\Users\gaeta\AppData\Local\Temp\cc1gLEEn.s 			page 7


 102:Menu_Functions.c ****                     {
 103:Menu_Functions.c ****                         reg_menu = LIS3DH_8G_CTRL_REG4;
 241              		.loc 1 103 0
 242 0126 A021     		movs	r1, #160
 243 0128 1971     		strb	r1, [r3, #4]
 104:Menu_Functions.c ****                         ACC_writeByte(LIS3DH_CTRL_REG4,reg_menu);
 244              		.loc 1 104 0
 245 012a 2320     		movs	r0, #35
 246 012c FFF7FEFF 		bl	ACC_writeByte
 247              	.LVL27:
 248              	.L20:
 105:Menu_Functions.c ****                     }
 106:Menu_Functions.c ****                     
 107:Menu_Functions.c ****                     Sensitivity = 16;
 249              		.loc 1 107 0
 250 0130 6C4C     		ldr	r4, .L69+28
 251 0132 1023     		movs	r3, #16
 252 0134 2370     		strb	r3, [r4]
 108:Menu_Functions.c ****                     
 109:Menu_Functions.c ****                     EEPROM_writeByte(EEPROM_FULLSCALE_CONFIG, reg_menu);
 253              		.loc 1 109 0
 254 0136 6A4B     		ldr	r3, .L69+24
 255 0138 1979     		ldrb	r1, [r3, #4]	@ zero_extendqisi2
 256 013a 0120     		movs	r0, #1
 257 013c FFF7FEFF 		bl	EEPROM_writeByte
 258              	.LVL28:
 110:Menu_Functions.c ****                     EEPROM_waitForWriteComplete();
 259              		.loc 1 110 0
 260 0140 FFF7FEFF 		bl	EEPROM_waitForWriteComplete
 261              	.LVL29:
 111:Menu_Functions.c ****                     EEPROM_writeByte(EEPROM_SENSITIVITY_VALUE, Sensitivity);
 262              		.loc 1 111 0
 263 0144 2178     		ldrb	r1, [r4]	@ zero_extendqisi2
 264 0146 0420     		movs	r0, #4
 265 0148 FFF7FEFF 		bl	EEPROM_writeByte
 266              	.LVL30:
 112:Menu_Functions.c ****                     EEPROM_waitForWriteComplete();
 267              		.loc 1 112 0
 268 014c FFF7FEFF 		bl	EEPROM_waitForWriteComplete
 269              	.LVL31:
 113:Menu_Functions.c ****                     
 114:Menu_Functions.c ****                     UART_PutString("YOU CHOOSE +-8g\r\r");
 270              		.loc 1 114 0
 271 0150 6748     		ldr	r0, .L69+40
 272 0152 FFF7FEFF 		bl	UART_PutString
 273              	.LVL32:
 115:Menu_Functions.c ****                     
 116:Menu_Functions.c ****                     FIFO_Reset ();
 274              		.loc 1 116 0
 275 0156 FFF7FEFF 		bl	FIFO_Reset
 276              	.LVL33:
 117:Menu_Functions.c ****                     
 118:Menu_Functions.c ****                     break;
 277              		.loc 1 118 0
 278 015a 38BD     		pop	{r3, r4, r5, pc}
 279              	.L16:
 119:Menu_Functions.c ****                 
ARM GAS  C:\Users\gaeta\AppData\Local\Temp\cc1gLEEn.s 			page 8


 120:Menu_Functions.c ****                 case '4':
 121:Menu_Functions.c ****                     
 122:Menu_Functions.c ****                     reg_menu = ACC_readByte(LIS3DH_CTRL_REG4);
 280              		.loc 1 122 0
 281 015c 2320     		movs	r0, #35
 282 015e FFF7FEFF 		bl	ACC_readByte
 283              	.LVL34:
 284 0162 5F4B     		ldr	r3, .L69+24
 285 0164 1871     		strb	r0, [r3, #4]
 123:Menu_Functions.c ****                     if (reg_menu != LIS3DH_16G_CTRL_REG4) 
 286              		.loc 1 123 0
 287 0166 B028     		cmp	r0, #176
 288 0168 04D0     		beq	.L21
 124:Menu_Functions.c ****                     {
 125:Menu_Functions.c ****                         reg_menu = LIS3DH_16G_CTRL_REG4;
 289              		.loc 1 125 0
 290 016a B021     		movs	r1, #176
 291 016c 1971     		strb	r1, [r3, #4]
 126:Menu_Functions.c ****                         ACC_writeByte(LIS3DH_CTRL_REG4,reg_menu);
 292              		.loc 1 126 0
 293 016e 2320     		movs	r0, #35
 294 0170 FFF7FEFF 		bl	ACC_writeByte
 295              	.LVL35:
 296              	.L21:
 127:Menu_Functions.c ****                     }
 128:Menu_Functions.c ****                     
 129:Menu_Functions.c ****                     Sensitivity = 48;
 297              		.loc 1 129 0
 298 0174 5B4C     		ldr	r4, .L69+28
 299 0176 3023     		movs	r3, #48
 300 0178 2370     		strb	r3, [r4]
 130:Menu_Functions.c ****                     
 131:Menu_Functions.c ****                     EEPROM_writeByte(EEPROM_FULLSCALE_CONFIG, reg_menu);
 301              		.loc 1 131 0
 302 017a 594B     		ldr	r3, .L69+24
 303 017c 1979     		ldrb	r1, [r3, #4]	@ zero_extendqisi2
 304 017e 0120     		movs	r0, #1
 305 0180 FFF7FEFF 		bl	EEPROM_writeByte
 306              	.LVL36:
 132:Menu_Functions.c ****                     EEPROM_waitForWriteComplete();
 307              		.loc 1 132 0
 308 0184 FFF7FEFF 		bl	EEPROM_waitForWriteComplete
 309              	.LVL37:
 133:Menu_Functions.c ****                     EEPROM_writeByte(EEPROM_SENSITIVITY_VALUE, Sensitivity);
 310              		.loc 1 133 0
 311 0188 2178     		ldrb	r1, [r4]	@ zero_extendqisi2
 312 018a 0420     		movs	r0, #4
 313 018c FFF7FEFF 		bl	EEPROM_writeByte
 314              	.LVL38:
 134:Menu_Functions.c ****                     EEPROM_waitForWriteComplete();
 315              		.loc 1 134 0
 316 0190 FFF7FEFF 		bl	EEPROM_waitForWriteComplete
 317              	.LVL39:
 135:Menu_Functions.c ****                     
 136:Menu_Functions.c ****                     UART_PutString("YOU CHOOSE +-16g\r\r");
 318              		.loc 1 136 0
 319 0194 5748     		ldr	r0, .L69+44
ARM GAS  C:\Users\gaeta\AppData\Local\Temp\cc1gLEEn.s 			page 9


 320 0196 FFF7FEFF 		bl	UART_PutString
 321              	.LVL40:
 137:Menu_Functions.c ****                     
 138:Menu_Functions.c ****                     FIFO_Reset ();
 322              		.loc 1 138 0
 323 019a FFF7FEFF 		bl	FIFO_Reset
 324              	.LVL41:
 139:Menu_Functions.c ****                     
 140:Menu_Functions.c ****                     break;
 325              		.loc 1 140 0
 326 019e 38BD     		pop	{r3, r4, r5, pc}
 327              	.L17:
 141:Menu_Functions.c ****                 
 142:Menu_Functions.c ****                 case '5':
 143:Menu_Functions.c ****                     
 144:Menu_Functions.c ****                     UART_PutString("EXIT....\r\r");
 328              		.loc 1 144 0
 329 01a0 5548     		ldr	r0, .L69+48
 330 01a2 FFF7FEFF 		bl	UART_PutString
 331              	.LVL42:
 145:Menu_Functions.c ****                     
 146:Menu_Functions.c ****                     break;
 332              		.loc 1 146 0
 333 01a6 38BD     		pop	{r3, r4, r5, pc}
 334              	.L11:
 147:Menu_Functions.c ****                 
 148:Menu_Functions.c ****                 default:
 149:Menu_Functions.c ****                     UART_PutString("INVALID INPUT, EXIT....\r\r\r\r\r\r");
 335              		.loc 1 149 0
 336 01a8 5448     		ldr	r0, .L69+52
 337 01aa FFF7FEFF 		bl	UART_PutString
 338              	.LVL43:
 339 01ae 38BD     		pop	{r3, r4, r5, pc}
 340              	.L5:
 150:Menu_Functions.c ****             }
 151:Menu_Functions.c ****     }
 152:Menu_Functions.c ****     else if (ch_received == 'p' || ch_received == 'P')
 341              		.loc 1 152 0
 342 01b0 7028     		cmp	r0, #112
 343 01b2 02D0     		beq	.L22
 344              		.loc 1 152 0 is_stmt 0 discriminator 1
 345 01b4 5028     		cmp	r0, #80
 346 01b6 40F0D180 		bne	.L23
 347              	.L22:
 153:Menu_Functions.c ****     {
 154:Menu_Functions.c ****         UART_PutString("*********    CHOOSE ACCELEROMETER SAMPLING FREQUENCY    *********\r\r1. 1 H
 348              		.loc 1 154 0 is_stmt 1
 349 01ba 5148     		ldr	r0, .L69+56
 350 01bc FFF7FEFF 		bl	UART_PutString
 351              	.LVL44:
 155:Menu_Functions.c ****         UART_PutString("*****************************************************************\r\n");
 352              		.loc 1 155 0
 353 01c0 5048     		ldr	r0, .L69+60
 354 01c2 FFF7FEFF 		bl	UART_PutString
 355              	.LVL45:
 156:Menu_Functions.c ****         
 157:Menu_Functions.c ****         while(!UART_GetRxBufferSize())
ARM GAS  C:\Users\gaeta\AppData\Local\Temp\cc1gLEEn.s 			page 10


 356              		.loc 1 157 0
 357 01c6 09E0     		b	.L24
 358              	.L26:
 158:Menu_Functions.c ****         {
 159:Menu_Functions.c ****             CyDelay(10);
 359              		.loc 1 159 0
 360 01c8 0A20     		movs	r0, #10
 361 01ca FFF7FEFF 		bl	CyDelay
 362              	.LVL46:
 160:Menu_Functions.c ****             WaitTime++;
 363              		.loc 1 160 0
 364 01ce 444A     		ldr	r2, .L69+24
 365 01d0 1368     		ldr	r3, [r2]
 366 01d2 0133     		adds	r3, r3, #1
 367 01d4 1360     		str	r3, [r2]
 161:Menu_Functions.c ****             if (WaitTime >= MAX_WAITTIME) break;
 368              		.loc 1 161 0
 369 01d6 B3F57A7F 		cmp	r3, #1000
 370 01da 03DA     		bge	.L25
 371              	.L24:
 157:Menu_Functions.c ****         {
 372              		.loc 1 157 0
 373 01dc FFF7FEFF 		bl	UART_GetRxBufferSize
 374              	.LVL47:
 375 01e0 0028     		cmp	r0, #0
 376 01e2 F1D0     		beq	.L26
 377              	.L25:
 162:Menu_Functions.c ****         }
 163:Menu_Functions.c ****         
 164:Menu_Functions.c ****         if (WaitTime >= MAX_WAITTIME)   ch_received = '5';
 378              		.loc 1 164 0
 379 01e4 3E4B     		ldr	r3, .L69+24
 380 01e6 1B68     		ldr	r3, [r3]
 381 01e8 B3F57A7F 		cmp	r3, #1000
 382 01ec 03DB     		blt	.L27
 383              		.loc 1 164 0 is_stmt 0 discriminator 1
 384 01ee 3522     		movs	r2, #53
 385 01f0 354B     		ldr	r3, .L69
 386 01f2 1A70     		strb	r2, [r3]
 387 01f4 03E0     		b	.L28
 388              	.L27:
 165:Menu_Functions.c ****         else                            ch_received = UART_GetChar();
 389              		.loc 1 165 0 is_stmt 1
 390 01f6 FFF7FEFF 		bl	UART_GetChar
 391              	.LVL48:
 392 01fa 334B     		ldr	r3, .L69
 393 01fc 1870     		strb	r0, [r3]
 394              	.L28:
 166:Menu_Functions.c ****         
 167:Menu_Functions.c ****         WaitTime = 0;
 395              		.loc 1 167 0
 396 01fe 0022     		movs	r2, #0
 397 0200 374B     		ldr	r3, .L69+24
 398 0202 1A60     		str	r2, [r3]
 168:Menu_Functions.c ****         
 169:Menu_Functions.c ****         UART_ClearRxBuffer();
 399              		.loc 1 169 0
ARM GAS  C:\Users\gaeta\AppData\Local\Temp\cc1gLEEn.s 			page 11


 400 0204 FFF7FEFF 		bl	UART_ClearRxBuffer
 401              	.LVL49:
 170:Menu_Functions.c **** 
 171:Menu_Functions.c ****         switch (ch_received)
 402              		.loc 1 171 0
 403 0208 2F4B     		ldr	r3, .L69
 404 020a 1B78     		ldrb	r3, [r3]	@ zero_extendqisi2
 405 020c 313B     		subs	r3, r3, #49
 406 020e 042B     		cmp	r3, #4
 407 0210 00F2A080 		bhi	.L29
 408 0214 DFE803F0 		tbb	[pc, r3]
 409              	.L31:
 410 0218 03       		.byte	(.L30-.L31)/2
 411 0219 20       		.byte	(.L32-.L31)/2
 412 021a 3C       		.byte	(.L33-.L31)/2
 413 021b 7E       		.byte	(.L34-.L31)/2
 414 021c 9A       		.byte	(.L35-.L31)/2
 415 021d 00       		.p2align 1
 416              	.L30:
 172:Menu_Functions.c ****         {
 173:Menu_Functions.c ****             case '1':
 174:Menu_Functions.c ****             
 175:Menu_Functions.c ****                 reg_menu = ACC_readByte(LIS3DH_CTRL_REG1);
 417              		.loc 1 175 0
 418 021e 2020     		movs	r0, #32
 419 0220 FFF7FEFF 		bl	ACC_readByte
 420              	.LVL50:
 421 0224 2E4B     		ldr	r3, .L69+24
 422 0226 1871     		strb	r0, [r3, #4]
 176:Menu_Functions.c ****                 if (reg_menu != LIS3DH_1HZ_CTRL_REG1) 
 423              		.loc 1 176 0
 424 0228 1728     		cmp	r0, #23
 425 022a 04D0     		beq	.L36
 177:Menu_Functions.c ****                 {
 178:Menu_Functions.c ****                     reg_menu = LIS3DH_1HZ_CTRL_REG1;
 426              		.loc 1 178 0
 427 022c 1721     		movs	r1, #23
 428 022e 1971     		strb	r1, [r3, #4]
 179:Menu_Functions.c ****                     ACC_writeByte(LIS3DH_CTRL_REG1,reg_menu);
 429              		.loc 1 179 0
 430 0230 2020     		movs	r0, #32
 431 0232 FFF7FEFF 		bl	ACC_writeByte
 432              	.LVL51:
 433              	.L36:
 180:Menu_Functions.c ****                 }
 181:Menu_Functions.c ****                 
 182:Menu_Functions.c ****                 EEPROM_writeByte(EEPROM_FREQ_CONFIG, reg_menu);
 434              		.loc 1 182 0
 435 0236 2A4B     		ldr	r3, .L69+24
 436 0238 1979     		ldrb	r1, [r3, #4]	@ zero_extendqisi2
 437 023a 0020     		movs	r0, #0
 438 023c FFF7FEFF 		bl	EEPROM_writeByte
 439              	.LVL52:
 183:Menu_Functions.c ****                 EEPROM_waitForWriteComplete();
 440              		.loc 1 183 0
 441 0240 FFF7FEFF 		bl	EEPROM_waitForWriteComplete
 442              	.LVL53:
ARM GAS  C:\Users\gaeta\AppData\Local\Temp\cc1gLEEn.s 			page 12


 184:Menu_Functions.c ****                 
 185:Menu_Functions.c ****                 Timer_WritePeriod(1000);
 443              		.loc 1 185 0
 444 0244 4FF47A70 		mov	r0, #1000
 445 0248 FFF7FEFF 		bl	Timer_WritePeriod
 446              	.LVL54:
 186:Menu_Functions.c ****                 
 187:Menu_Functions.c ****                 UART_PutString("YOU CHOOSE 1 Hz\r\r");
 447              		.loc 1 187 0
 448 024c 2E48     		ldr	r0, .L69+64
 449 024e FFF7FEFF 		bl	UART_PutString
 450              	.LVL55:
 188:Menu_Functions.c ****                 
 189:Menu_Functions.c ****                 FIFO_Reset ();
 451              		.loc 1 189 0
 452 0252 FFF7FEFF 		bl	FIFO_Reset
 453              	.LVL56:
 190:Menu_Functions.c ****                 
 191:Menu_Functions.c ****                 break;
 454              		.loc 1 191 0
 455 0256 38BD     		pop	{r3, r4, r5, pc}
 456              	.L32:
 192:Menu_Functions.c ****                 
 193:Menu_Functions.c ****             case '2':
 194:Menu_Functions.c ****                 
 195:Menu_Functions.c ****                 reg_menu = ACC_readByte(LIS3DH_CTRL_REG1);
 457              		.loc 1 195 0
 458 0258 2020     		movs	r0, #32
 459 025a FFF7FEFF 		bl	ACC_readByte
 460              	.LVL57:
 461 025e 204B     		ldr	r3, .L69+24
 462 0260 1871     		strb	r0, [r3, #4]
 196:Menu_Functions.c ****                 if (reg_menu != LIS3DH_10HZ_CTRL_REG1) 
 463              		.loc 1 196 0
 464 0262 2728     		cmp	r0, #39
 465 0264 04D0     		beq	.L37
 197:Menu_Functions.c ****                 {
 198:Menu_Functions.c ****                     reg_menu = LIS3DH_10HZ_CTRL_REG1;
 466              		.loc 1 198 0
 467 0266 2721     		movs	r1, #39
 468 0268 1971     		strb	r1, [r3, #4]
 199:Menu_Functions.c ****                     ACC_writeByte(LIS3DH_CTRL_REG1,reg_menu);
 469              		.loc 1 199 0
 470 026a 2020     		movs	r0, #32
 471 026c FFF7FEFF 		bl	ACC_writeByte
 472              	.LVL58:
 473              	.L37:
 200:Menu_Functions.c ****                 }
 201:Menu_Functions.c ****                 
 202:Menu_Functions.c ****                 EEPROM_writeByte(EEPROM_FREQ_CONFIG, reg_menu);
 474              		.loc 1 202 0
 475 0270 1B4B     		ldr	r3, .L69+24
 476 0272 1979     		ldrb	r1, [r3, #4]	@ zero_extendqisi2
 477 0274 0020     		movs	r0, #0
 478 0276 FFF7FEFF 		bl	EEPROM_writeByte
 479              	.LVL59:
 203:Menu_Functions.c ****                 EEPROM_waitForWriteComplete();
ARM GAS  C:\Users\gaeta\AppData\Local\Temp\cc1gLEEn.s 			page 13


 480              		.loc 1 203 0
 481 027a FFF7FEFF 		bl	EEPROM_waitForWriteComplete
 482              	.LVL60:
 204:Menu_Functions.c ****                 
 205:Menu_Functions.c ****                 Timer_WritePeriod(100);
 483              		.loc 1 205 0
 484 027e 6420     		movs	r0, #100
 485 0280 FFF7FEFF 		bl	Timer_WritePeriod
 486              	.LVL61:
 206:Menu_Functions.c ****                 
 207:Menu_Functions.c ****                 UART_PutString("YOU CHOOSE 10 Hz\r\r");
 487              		.loc 1 207 0
 488 0284 2148     		ldr	r0, .L69+68
 489 0286 FFF7FEFF 		bl	UART_PutString
 490              	.LVL62:
 208:Menu_Functions.c ****                 
 209:Menu_Functions.c ****                 FIFO_Reset ();
 491              		.loc 1 209 0
 492 028a FFF7FEFF 		bl	FIFO_Reset
 493              	.LVL63:
 210:Menu_Functions.c ****                 
 211:Menu_Functions.c ****                 break;
 494              		.loc 1 211 0
 495 028e 38BD     		pop	{r3, r4, r5, pc}
 496              	.L33:
 212:Menu_Functions.c ****                 
 213:Menu_Functions.c ****             case '3':
 214:Menu_Functions.c ****                 
 215:Menu_Functions.c ****                 reg_menu = ACC_readByte(LIS3DH_CTRL_REG1);
 497              		.loc 1 215 0
 498 0290 2020     		movs	r0, #32
 499 0292 FFF7FEFF 		bl	ACC_readByte
 500              	.LVL64:
 501 0296 124B     		ldr	r3, .L69+24
 502 0298 1871     		strb	r0, [r3, #4]
 216:Menu_Functions.c ****                 if (reg_menu != LIS3DH_25HZ_CTRL_REG1) 
 503              		.loc 1 216 0
 504 029a 3728     		cmp	r0, #55
 505 029c 04D0     		beq	.L38
 217:Menu_Functions.c ****                 {
 218:Menu_Functions.c ****                     reg_menu = LIS3DH_25HZ_CTRL_REG1;
 506              		.loc 1 218 0
 507 029e 3721     		movs	r1, #55
 508 02a0 1971     		strb	r1, [r3, #4]
 219:Menu_Functions.c ****                     ACC_writeByte(LIS3DH_CTRL_REG1,reg_menu);
 509              		.loc 1 219 0
 510 02a2 2020     		movs	r0, #32
 511 02a4 FFF7FEFF 		bl	ACC_writeByte
 512              	.LVL65:
 513              	.L38:
 220:Menu_Functions.c ****                 }
 221:Menu_Functions.c ****                 
 222:Menu_Functions.c ****                 EEPROM_writeByte(EEPROM_FREQ_CONFIG, reg_menu);
 514              		.loc 1 222 0
 515 02a8 0D4B     		ldr	r3, .L69+24
 516 02aa 1979     		ldrb	r1, [r3, #4]	@ zero_extendqisi2
 517 02ac 0020     		movs	r0, #0
ARM GAS  C:\Users\gaeta\AppData\Local\Temp\cc1gLEEn.s 			page 14


 518 02ae FFF7FEFF 		bl	EEPROM_writeByte
 519              	.LVL66:
 223:Menu_Functions.c ****                 EEPROM_waitForWriteComplete();
 520              		.loc 1 223 0
 521 02b2 FFF7FEFF 		bl	EEPROM_waitForWriteComplete
 522              	.LVL67:
 224:Menu_Functions.c ****                 
 225:Menu_Functions.c ****                 UART_PutString("YOU CHOOSE 25 Hz\r\r");
 523              		.loc 1 225 0
 524 02b6 1648     		ldr	r0, .L69+72
 525 02b8 FFF7FEFF 		bl	UART_PutString
 526              	.LVL68:
 226:Menu_Functions.c ****                 
 227:Menu_Functions.c ****                 Timer_WritePeriod(40);
 527              		.loc 1 227 0
 528 02bc 2820     		movs	r0, #40
 529 02be FFF7FEFF 		bl	Timer_WritePeriod
 530              	.LVL69:
 228:Menu_Functions.c ****                 
 229:Menu_Functions.c ****                 FIFO_Reset ();
 531              		.loc 1 229 0
 532 02c2 FFF7FEFF 		bl	FIFO_Reset
 533              	.LVL70:
 230:Menu_Functions.c ****                 
 231:Menu_Functions.c ****                 break;
 534              		.loc 1 231 0
 535 02c6 38BD     		pop	{r3, r4, r5, pc}
 536              	.L70:
 537              		.align	2
 538              	.L69:
 539 02c8 00000000 		.word	ch_received
 540 02cc 00000000 		.word	.LC0
 541 02d0 34000000 		.word	.LC1
 542 02d4 B4000000 		.word	.LC2
 543 02d8 E8000000 		.word	.LC3
 544 02dc 58010000 		.word	.LC4
 545 02e0 00000000 		.word	.LANCHOR0
 546 02e4 00000000 		.word	Sensitivity
 547 02e8 94010000 		.word	.LC5
 548 02ec A8010000 		.word	.LC6
 549 02f0 BC010000 		.word	.LC7
 550 02f4 D0010000 		.word	.LC8
 551 02f8 E4010000 		.word	.LC9
 552 02fc F0010000 		.word	.LC10
 553 0300 10020000 		.word	.LC11
 554 0304 88020000 		.word	.LC12
 555 0308 CC020000 		.word	.LC13
 556 030c E0020000 		.word	.LC14
 557 0310 F4020000 		.word	.LC15
 558              	.L34:
 232:Menu_Functions.c ****                 
 233:Menu_Functions.c ****             case '4':
 234:Menu_Functions.c ****                 
 235:Menu_Functions.c ****                 reg_menu = ACC_readByte(LIS3DH_CTRL_REG1);
 559              		.loc 1 235 0
 560 0314 2020     		movs	r0, #32
 561 0316 FFF7FEFF 		bl	ACC_readByte
ARM GAS  C:\Users\gaeta\AppData\Local\Temp\cc1gLEEn.s 			page 15


 562              	.LVL71:
 563 031a 954B     		ldr	r3, .L71
 564 031c 1871     		strb	r0, [r3, #4]
 236:Menu_Functions.c ****                 if (reg_menu != LIS3DH_50HZ_CTRL_REG1) 
 565              		.loc 1 236 0
 566 031e 4728     		cmp	r0, #71
 567 0320 04D0     		beq	.L39
 237:Menu_Functions.c ****                 {
 238:Menu_Functions.c ****                     reg_menu = LIS3DH_50HZ_CTRL_REG1;
 568              		.loc 1 238 0
 569 0322 4721     		movs	r1, #71
 570 0324 1971     		strb	r1, [r3, #4]
 239:Menu_Functions.c ****                     ACC_writeByte(LIS3DH_CTRL_REG1,reg_menu);
 571              		.loc 1 239 0
 572 0326 2020     		movs	r0, #32
 573 0328 FFF7FEFF 		bl	ACC_writeByte
 574              	.LVL72:
 575              	.L39:
 240:Menu_Functions.c ****                 }
 241:Menu_Functions.c ****                 
 242:Menu_Functions.c ****                 EEPROM_writeByte(EEPROM_FREQ_CONFIG, reg_menu);
 576              		.loc 1 242 0
 577 032c 904B     		ldr	r3, .L71
 578 032e 1979     		ldrb	r1, [r3, #4]	@ zero_extendqisi2
 579 0330 0020     		movs	r0, #0
 580 0332 FFF7FEFF 		bl	EEPROM_writeByte
 581              	.LVL73:
 243:Menu_Functions.c ****                 EEPROM_waitForWriteComplete();
 582              		.loc 1 243 0
 583 0336 FFF7FEFF 		bl	EEPROM_waitForWriteComplete
 584              	.LVL74:
 244:Menu_Functions.c ****                 
 245:Menu_Functions.c ****                 UART_PutString("YOU CHOOSE 50 Hz\r\r");
 585              		.loc 1 245 0
 586 033a 8E48     		ldr	r0, .L71+4
 587 033c FFF7FEFF 		bl	UART_PutString
 588              	.LVL75:
 246:Menu_Functions.c ****                 
 247:Menu_Functions.c ****                 Timer_WritePeriod(20);
 589              		.loc 1 247 0
 590 0340 1420     		movs	r0, #20
 591 0342 FFF7FEFF 		bl	Timer_WritePeriod
 592              	.LVL76:
 248:Menu_Functions.c **** 
 249:Menu_Functions.c ****                 FIFO_Reset ();
 593              		.loc 1 249 0
 594 0346 FFF7FEFF 		bl	FIFO_Reset
 595              	.LVL77:
 250:Menu_Functions.c ****                 
 251:Menu_Functions.c ****                 break;
 596              		.loc 1 251 0
 597 034a 38BD     		pop	{r3, r4, r5, pc}
 598              	.L35:
 252:Menu_Functions.c ****                                             
 253:Menu_Functions.c ****                 case '5':
 254:Menu_Functions.c ****                 
 255:Menu_Functions.c ****                 UART_PutString("EXIT....\r\r");
ARM GAS  C:\Users\gaeta\AppData\Local\Temp\cc1gLEEn.s 			page 16


 599              		.loc 1 255 0
 600 034c 8A48     		ldr	r0, .L71+8
 601 034e FFF7FEFF 		bl	UART_PutString
 602              	.LVL78:
 256:Menu_Functions.c ****                 
 257:Menu_Functions.c ****                 break;
 603              		.loc 1 257 0
 604 0352 38BD     		pop	{r3, r4, r5, pc}
 605              	.L29:
 258:Menu_Functions.c ****             
 259:Menu_Functions.c ****             default:
 260:Menu_Functions.c ****                 UART_PutString("INVALID INPUT, EXIT....\r\r\r\r\r\r");
 606              		.loc 1 260 0
 607 0354 8948     		ldr	r0, .L71+12
 608 0356 FFF7FEFF 		bl	UART_PutString
 609              	.LVL79:
 610 035a 38BD     		pop	{r3, r4, r5, pc}
 611              	.L23:
 261:Menu_Functions.c ****         }
 262:Menu_Functions.c ****     }
 263:Menu_Functions.c ****     else if (ch_received == 't' || ch_received == 'T')
 612              		.loc 1 263 0
 613 035c 7428     		cmp	r0, #116
 614 035e 01D0     		beq	.L40
 615              		.loc 1 263 0 is_stmt 0 discriminator 1
 616 0360 5428     		cmp	r0, #84
 617 0362 52D1     		bne	.L41
 618              	.L40:
 264:Menu_Functions.c ****     {
 265:Menu_Functions.c ****         UART_PutString("*********    CHOOSE TEMPERATURE UNIT    *********\r\r1. Celsius\r\n2. Fahre
 619              		.loc 1 265 0 is_stmt 1
 620 0364 8648     		ldr	r0, .L71+16
 621 0366 FFF7FEFF 		bl	UART_PutString
 622              	.LVL80:
 266:Menu_Functions.c ****         UART_PutString("*****************************************************************\r\n");
 623              		.loc 1 266 0
 624 036a 8648     		ldr	r0, .L71+20
 625 036c FFF7FEFF 		bl	UART_PutString
 626              	.LVL81:
 267:Menu_Functions.c ****         
 268:Menu_Functions.c ****         while(!UART_GetRxBufferSize())
 627              		.loc 1 268 0
 628 0370 09E0     		b	.L42
 629              	.L44:
 269:Menu_Functions.c ****         {
 270:Menu_Functions.c ****             CyDelay(10);
 630              		.loc 1 270 0
 631 0372 0A20     		movs	r0, #10
 632 0374 FFF7FEFF 		bl	CyDelay
 633              	.LVL82:
 271:Menu_Functions.c ****             WaitTime++;
 634              		.loc 1 271 0
 635 0378 7D4A     		ldr	r2, .L71
 636 037a 1368     		ldr	r3, [r2]
 637 037c 0133     		adds	r3, r3, #1
 638 037e 1360     		str	r3, [r2]
 272:Menu_Functions.c ****             if (WaitTime >= MAX_WAITTIME) break;
ARM GAS  C:\Users\gaeta\AppData\Local\Temp\cc1gLEEn.s 			page 17


 639              		.loc 1 272 0
 640 0380 B3F57A7F 		cmp	r3, #1000
 641 0384 03DA     		bge	.L43
 642              	.L42:
 268:Menu_Functions.c ****         {
 643              		.loc 1 268 0
 644 0386 FFF7FEFF 		bl	UART_GetRxBufferSize
 645              	.LVL83:
 646 038a 0028     		cmp	r0, #0
 647 038c F1D0     		beq	.L44
 648              	.L43:
 273:Menu_Functions.c ****         }
 274:Menu_Functions.c ****         
 275:Menu_Functions.c ****         if (WaitTime >= MAX_WAITTIME)   ch_received = '3';
 649              		.loc 1 275 0
 650 038e 784B     		ldr	r3, .L71
 651 0390 1B68     		ldr	r3, [r3]
 652 0392 B3F57A7F 		cmp	r3, #1000
 653 0396 03DB     		blt	.L45
 654              		.loc 1 275 0 is_stmt 0 discriminator 1
 655 0398 3322     		movs	r2, #51
 656 039a 7B4B     		ldr	r3, .L71+24
 657 039c 1A70     		strb	r2, [r3]
 658 039e 03E0     		b	.L46
 659              	.L45:
 276:Menu_Functions.c ****         else                            ch_received = UART_GetChar();
 660              		.loc 1 276 0 is_stmt 1
 661 03a0 FFF7FEFF 		bl	UART_GetChar
 662              	.LVL84:
 663 03a4 784B     		ldr	r3, .L71+24
 664 03a6 1870     		strb	r0, [r3]
 665              	.L46:
 277:Menu_Functions.c ****         
 278:Menu_Functions.c ****         WaitTime = 0;
 666              		.loc 1 278 0
 667 03a8 0022     		movs	r2, #0
 668 03aa 714B     		ldr	r3, .L71
 669 03ac 1A60     		str	r2, [r3]
 279:Menu_Functions.c ****         
 280:Menu_Functions.c ****         UART_ClearRxBuffer();
 670              		.loc 1 280 0
 671 03ae FFF7FEFF 		bl	UART_ClearRxBuffer
 672              	.LVL85:
 281:Menu_Functions.c **** 
 282:Menu_Functions.c ****         switch (ch_received)
 673              		.loc 1 282 0
 674 03b2 754B     		ldr	r3, .L71+24
 675 03b4 1B78     		ldrb	r3, [r3]	@ zero_extendqisi2
 676 03b6 322B     		cmp	r3, #50
 677 03b8 11D0     		beq	.L48
 678 03ba 332B     		cmp	r3, #51
 679 03bc 1DD0     		beq	.L49
 680 03be 312B     		cmp	r3, #49
 681 03c0 1FD1     		bne	.L67
 283:Menu_Functions.c ****         {
 284:Menu_Functions.c ****             case '1':
 285:Menu_Functions.c ****                 TempUnit = CELSIUS;
ARM GAS  C:\Users\gaeta\AppData\Local\Temp\cc1gLEEn.s 			page 18


 682              		.loc 1 285 0
 683 03c2 0021     		movs	r1, #0
 684 03c4 714B     		ldr	r3, .L71+28
 685 03c6 1970     		strb	r1, [r3]
 286:Menu_Functions.c ****                 
 287:Menu_Functions.c ****                 EEPROM_writeByte(EEPROM_TEMP_CONFIG, TempUnit);
 686              		.loc 1 287 0
 687 03c8 0320     		movs	r0, #3
 688 03ca FFF7FEFF 		bl	EEPROM_writeByte
 689              	.LVL86:
 288:Menu_Functions.c ****                 EEPROM_waitForWriteComplete();
 690              		.loc 1 288 0
 691 03ce FFF7FEFF 		bl	EEPROM_waitForWriteComplete
 692              	.LVL87:
 289:Menu_Functions.c ****                 
 290:Menu_Functions.c ****                 UART_PutString("YOU CHOOSE CELSIUS UNIT\r\r");
 693              		.loc 1 290 0
 694 03d2 6F48     		ldr	r0, .L71+32
 695 03d4 FFF7FEFF 		bl	UART_PutString
 696              	.LVL88:
 291:Menu_Functions.c ****                 
 292:Menu_Functions.c ****                 FIFO_Reset ();
 697              		.loc 1 292 0
 698 03d8 FFF7FEFF 		bl	FIFO_Reset
 699              	.LVL89:
 293:Menu_Functions.c ****                 
 294:Menu_Functions.c ****                 break;
 700              		.loc 1 294 0
 701 03dc 38BD     		pop	{r3, r4, r5, pc}
 702              	.L48:
 295:Menu_Functions.c ****             
 296:Menu_Functions.c ****             case '2':
 297:Menu_Functions.c ****                 TempUnit = FAHRENHEIT;
 703              		.loc 1 297 0
 704 03de 0121     		movs	r1, #1
 705 03e0 6A4B     		ldr	r3, .L71+28
 706 03e2 1970     		strb	r1, [r3]
 298:Menu_Functions.c ****             
 299:Menu_Functions.c ****                 EEPROM_writeByte(EEPROM_TEMP_CONFIG, TempUnit);
 707              		.loc 1 299 0
 708 03e4 0320     		movs	r0, #3
 709 03e6 FFF7FEFF 		bl	EEPROM_writeByte
 710              	.LVL90:
 300:Menu_Functions.c ****                 EEPROM_waitForWriteComplete();
 711              		.loc 1 300 0
 712 03ea FFF7FEFF 		bl	EEPROM_waitForWriteComplete
 713              	.LVL91:
 301:Menu_Functions.c ****                 
 302:Menu_Functions.c ****                 UART_PutString("YOU CHOOSE FAHRENHEIT UNIT\r\r");
 714              		.loc 1 302 0
 715 03ee 6948     		ldr	r0, .L71+36
 716 03f0 FFF7FEFF 		bl	UART_PutString
 717              	.LVL92:
 303:Menu_Functions.c ****                 
 304:Menu_Functions.c ****                 FIFO_Reset ();
 718              		.loc 1 304 0
 719 03f4 FFF7FEFF 		bl	FIFO_Reset
ARM GAS  C:\Users\gaeta\AppData\Local\Temp\cc1gLEEn.s 			page 19


 720              	.LVL93:
 305:Menu_Functions.c ****                 
 306:Menu_Functions.c ****                 break;
 721              		.loc 1 306 0
 722 03f8 38BD     		pop	{r3, r4, r5, pc}
 723              	.L49:
 307:Menu_Functions.c ****             
 308:Menu_Functions.c ****             case '3':
 309:Menu_Functions.c ****             
 310:Menu_Functions.c ****                 UART_PutString("EXIT....\r\r");
 724              		.loc 1 310 0
 725 03fa 5F48     		ldr	r0, .L71+8
 726 03fc FFF7FEFF 		bl	UART_PutString
 727              	.LVL94:
 311:Menu_Functions.c ****                 
 312:Menu_Functions.c ****                 break;
 728              		.loc 1 312 0
 729 0400 38BD     		pop	{r3, r4, r5, pc}
 730              	.L67:
 313:Menu_Functions.c ****             
 314:Menu_Functions.c ****             default:
 315:Menu_Functions.c ****                 UART_PutString("INVALID INPUT, EXIT....\r\r\r\r\r\r");
 731              		.loc 1 315 0
 732 0402 5E48     		ldr	r0, .L71+12
 733 0404 FFF7FEFF 		bl	UART_PutString
 734              	.LVL95:
 735 0408 38BD     		pop	{r3, r4, r5, pc}
 736              	.L41:
 316:Menu_Functions.c ****         }
 317:Menu_Functions.c ****     }
 318:Menu_Functions.c ****     else if (ch_received == 'b' || ch_received == 'B')
 737              		.loc 1 318 0
 738 040a 6228     		cmp	r0, #98
 739 040c 01D0     		beq	.L51
 740              		.loc 1 318 0 is_stmt 0 discriminator 1
 741 040e 4228     		cmp	r0, #66
 742 0410 27D1     		bne	.L52
 743              	.L51:
 319:Menu_Functions.c ****     {
 320:Menu_Functions.c ****         if (Registration_Active == 1)
 744              		.loc 1 320 0 is_stmt 1
 745 0412 614B     		ldr	r3, .L71+40
 746 0414 1B68     		ldr	r3, [r3]
 747 0416 012B     		cmp	r3, #1
 748 0418 06D1     		bne	.L53
 321:Menu_Functions.c ****         {
 322:Menu_Functions.c ****             UART_PutString ("*********    REGISTRATION ALREADY STARTED    *********\r");
 749              		.loc 1 322 0
 750 041a 6048     		ldr	r0, .L71+44
 751 041c FFF7FEFF 		bl	UART_PutString
 752              	.LVL96:
 323:Menu_Functions.c ****             UART_PutString("*****************************************************************\r\n")
 753              		.loc 1 323 0
 754 0420 5848     		ldr	r0, .L71+20
 755 0422 FFF7FEFF 		bl	UART_PutString
 756              	.LVL97:
 757 0426 19E0     		b	.L54
ARM GAS  C:\Users\gaeta\AppData\Local\Temp\cc1gLEEn.s 			page 20


 758              	.L53:
 324:Menu_Functions.c ****         }
 325:Menu_Functions.c ****         else if (Registration_Active == 0)
 759              		.loc 1 325 0
 760 0428 C3B9     		cbnz	r3, .L54
 326:Menu_Functions.c ****         {
 327:Menu_Functions.c ****             Registration_Active = 1;
 761              		.loc 1 327 0
 762 042a 0124     		movs	r4, #1
 763 042c 5A4B     		ldr	r3, .L71+40
 764 042e 1C60     		str	r4, [r3]
 328:Menu_Functions.c ****             Led_Update(999,499);
 765              		.loc 1 328 0
 766 0430 40F2F311 		movw	r1, #499
 767 0434 40F2E730 		movw	r0, #999
 768 0438 FFF7FEFF 		bl	Led_Update
 769              	.LVL98:
 329:Menu_Functions.c ****             UART_PutString ("*********    REGISTRATION STARTED    *********\r");
 770              		.loc 1 329 0
 771 043c 5848     		ldr	r0, .L71+48
 772 043e FFF7FEFF 		bl	UART_PutString
 773              	.LVL99:
 330:Menu_Functions.c ****             UART_PutString("*****************************************************************\r\n")
 774              		.loc 1 330 0
 775 0442 5048     		ldr	r0, .L71+20
 776 0444 FFF7FEFF 		bl	UART_PutString
 777              	.LVL100:
 331:Menu_Functions.c ****             EEPROM_writeByte(EEPROM_START_STOP_CONFIG, START);
 778              		.loc 1 331 0
 779 0448 2146     		mov	r1, r4
 780 044a 0220     		movs	r0, #2
 781 044c FFF7FEFF 		bl	EEPROM_writeByte
 782              	.LVL101:
 332:Menu_Functions.c ****             EEPROM_waitForWriteComplete();
 783              		.loc 1 332 0
 784 0450 FFF7FEFF 		bl	EEPROM_waitForWriteComplete
 785              	.LVL102:
 333:Menu_Functions.c ****             
 334:Menu_Functions.c ****             Timer_Start();
 786              		.loc 1 334 0
 787 0454 FFF7FEFF 		bl	Timer_Start
 788              	.LVL103:
 335:Menu_Functions.c ****             ADC_DelSig_StartConvert();
 789              		.loc 1 335 0
 790 0458 FFF7FEFF 		bl	ADC_DelSig_StartConvert
 791              	.LVL104:
 792              	.L54:
 336:Menu_Functions.c **** //            
 337:Menu_Functions.c ****         }
 338:Menu_Functions.c ****         
 339:Menu_Functions.c ****         UART_ClearRxBuffer();
 793              		.loc 1 339 0
 794 045c FFF7FEFF 		bl	UART_ClearRxBuffer
 795              	.LVL105:
 796 0460 38BD     		pop	{r3, r4, r5, pc}
 797              	.L52:
 340:Menu_Functions.c ****     }
ARM GAS  C:\Users\gaeta\AppData\Local\Temp\cc1gLEEn.s 			page 21


 341:Menu_Functions.c ****     else if (ch_received == 's' || ch_received == 'S')
 798              		.loc 1 341 0
 799 0462 7328     		cmp	r0, #115
 800 0464 01D0     		beq	.L55
 801              		.loc 1 341 0 is_stmt 0 discriminator 1
 802 0466 5328     		cmp	r0, #83
 803 0468 2DD1     		bne	.L56
 804              	.L55:
 342:Menu_Functions.c ****     {
 343:Menu_Functions.c ****         if (Registration_Active == 0)
 805              		.loc 1 343 0 is_stmt 1
 806 046a 4B4B     		ldr	r3, .L71+40
 807 046c 1B68     		ldr	r3, [r3]
 808 046e 33B9     		cbnz	r3, .L57
 344:Menu_Functions.c ****         {
 345:Menu_Functions.c ****             UART_PutString ("*********    REGISTRATION ALREADY STOPPED    *********\r");
 809              		.loc 1 345 0
 810 0470 4C48     		ldr	r0, .L71+52
 811 0472 FFF7FEFF 		bl	UART_PutString
 812              	.LVL106:
 346:Menu_Functions.c ****             UART_PutString("*****************************************************************\r\n")
 813              		.loc 1 346 0
 814 0476 4348     		ldr	r0, .L71+20
 815 0478 FFF7FEFF 		bl	UART_PutString
 816              	.LVL107:
 817 047c 20E0     		b	.L58
 818              	.L57:
 347:Menu_Functions.c ****         }
 348:Menu_Functions.c ****         else if (Registration_Active == 1)
 819              		.loc 1 348 0
 820 047e 012B     		cmp	r3, #1
 821 0480 1ED1     		bne	.L58
 349:Menu_Functions.c ****         {
 350:Menu_Functions.c ****             Registration_Active = 0;
 822              		.loc 1 350 0
 823 0482 0024     		movs	r4, #0
 824 0484 444B     		ldr	r3, .L71+40
 825 0486 1C60     		str	r4, [r3]
 351:Menu_Functions.c ****             Led_Update(999,999);
 826              		.loc 1 351 0
 827 0488 40F2E731 		movw	r1, #999
 828 048c 0846     		mov	r0, r1
 829 048e FFF7FEFF 		bl	Led_Update
 830              	.LVL108:
 352:Menu_Functions.c ****             UART_PutString ("*********    REGISTRATION STOPPED    *********\r");
 831              		.loc 1 352 0
 832 0492 4548     		ldr	r0, .L71+56
 833 0494 FFF7FEFF 		bl	UART_PutString
 834              	.LVL109:
 353:Menu_Functions.c ****             UART_PutString("*****************************************************************\r\n")
 835              		.loc 1 353 0
 836 0498 3A48     		ldr	r0, .L71+20
 837 049a FFF7FEFF 		bl	UART_PutString
 838              	.LVL110:
 354:Menu_Functions.c ****            
 355:Menu_Functions.c ****             EEPROM_writeByte(EEPROM_START_STOP_CONFIG, STOP);
 839              		.loc 1 355 0
ARM GAS  C:\Users\gaeta\AppData\Local\Temp\cc1gLEEn.s 			page 22


 840 049e 2146     		mov	r1, r4
 841 04a0 0220     		movs	r0, #2
 842 04a2 FFF7FEFF 		bl	EEPROM_writeByte
 843              	.LVL111:
 356:Menu_Functions.c ****             EEPROM_waitForWriteComplete();
 844              		.loc 1 356 0
 845 04a6 FFF7FEFF 		bl	EEPROM_waitForWriteComplete
 846              	.LVL112:
 357:Menu_Functions.c ****             
 358:Menu_Functions.c ****             EEPROM_writePage(EEPROM_ADDRESS_INDEX, (uint8_t*)&address_index,2);
 847              		.loc 1 358 0
 848 04aa 0222     		movs	r2, #2
 849 04ac 3F49     		ldr	r1, .L71+60
 850 04ae 0520     		movs	r0, #5
 851 04b0 FFF7FEFF 		bl	EEPROM_writePage
 852              	.LVL113:
 359:Menu_Functions.c ****             EEPROM_waitForWriteComplete();
 853              		.loc 1 359 0
 854 04b4 FFF7FEFF 		bl	EEPROM_waitForWriteComplete
 855              	.LVL114:
 360:Menu_Functions.c ****             
 361:Menu_Functions.c ****             Timer_Stop();
 856              		.loc 1 361 0
 857 04b8 FFF7FEFF 		bl	Timer_Stop
 858              	.LVL115:
 362:Menu_Functions.c ****             ADC_DelSig_StopConvert();
 859              		.loc 1 362 0
 860 04bc FFF7FEFF 		bl	ADC_DelSig_StopConvert
 861              	.LVL116:
 862              	.L58:
 363:Menu_Functions.c ****             
 364:Menu_Functions.c ****         }
 365:Menu_Functions.c ****         
 366:Menu_Functions.c ****         UART_ClearRxBuffer();
 863              		.loc 1 366 0
 864 04c0 FFF7FEFF 		bl	UART_ClearRxBuffer
 865              	.LVL117:
 866 04c4 38BD     		pop	{r3, r4, r5, pc}
 867              	.L56:
 367:Menu_Functions.c ****     }
 368:Menu_Functions.c ****     else if (ch_received == 'v' || ch_received == 'V')
 868              		.loc 1 368 0
 869 04c6 7628     		cmp	r0, #118
 870 04c8 01D0     		beq	.L59
 871              		.loc 1 368 0 is_stmt 0 discriminator 1
 872 04ca 5628     		cmp	r0, #86
 873 04cc 34D1     		bne	.L60
 874              	.L59:
 369:Menu_Functions.c ****     {
 370:Menu_Functions.c ****         if (Registration_Active == 0)
 875              		.loc 1 370 0 is_stmt 1
 876 04ce 324B     		ldr	r3, .L71+40
 877 04d0 1B68     		ldr	r3, [r3]
 878 04d2 7BB9     		cbnz	r3, .L61
 371:Menu_Functions.c ****         {
 372:Menu_Functions.c ****             UART_PutString ("*********    VISUALIZATION STARTED    *********\r");
 879              		.loc 1 372 0
ARM GAS  C:\Users\gaeta\AppData\Local\Temp\cc1gLEEn.s 			page 23


 880 04d4 3648     		ldr	r0, .L71+64
 881 04d6 FFF7FEFF 		bl	UART_PutString
 882              	.LVL118:
 373:Menu_Functions.c ****             UART_PutString("*****************************************************************\r\n")
 883              		.loc 1 373 0
 884 04da 2A48     		ldr	r0, .L71+20
 885 04dc FFF7FEFF 		bl	UART_PutString
 886              	.LVL119:
 374:Menu_Functions.c ****             ActiveVisualization = 1;
 887              		.loc 1 374 0
 888 04e0 0120     		movs	r0, #1
 889 04e2 344B     		ldr	r3, .L71+68
 890 04e4 1860     		str	r0, [r3]
 375:Menu_Functions.c ****             Pin_ExternalLED_Write(1);
 891              		.loc 1 375 0
 892 04e6 FFF7FEFF 		bl	Pin_ExternalLED_Write
 893              	.LVL120:
 376:Menu_Functions.c ****             Timer_Stop();
 894              		.loc 1 376 0
 895 04ea FFF7FEFF 		bl	Timer_Stop
 896              	.LVL121:
 377:Menu_Functions.c ****             ADC_DelSig_StopConvert();
 897              		.loc 1 377 0
 898 04ee FFF7FEFF 		bl	ADC_DelSig_StopConvert
 899              	.LVL122:
 900 04f2 1EE0     		b	.L62
 901              	.L61:
 378:Menu_Functions.c ****         }
 379:Menu_Functions.c ****         else if ( Registration_Active == 1)
 902              		.loc 1 379 0
 903 04f4 012B     		cmp	r3, #1
 904 04f6 12D1     		bne	.L63
 380:Menu_Functions.c ****         {
 381:Menu_Functions.c ****             Registration_Active = 0;
 905              		.loc 1 381 0
 906 04f8 0022     		movs	r2, #0
 907 04fa 274B     		ldr	r3, .L71+40
 908 04fc 1A60     		str	r2, [r3]
 382:Menu_Functions.c ****             UART_PutString ("*********    VISUALIZATION STARTED    *********\r");
 909              		.loc 1 382 0
 910 04fe 2C48     		ldr	r0, .L71+64
 911 0500 FFF7FEFF 		bl	UART_PutString
 912              	.LVL123:
 383:Menu_Functions.c ****             UART_PutString("*****************************************************************\r\n")
 913              		.loc 1 383 0
 914 0504 1F48     		ldr	r0, .L71+20
 915 0506 FFF7FEFF 		bl	UART_PutString
 916              	.LVL124:
 384:Menu_Functions.c ****             ActiveVisualization = 1;
 917              		.loc 1 384 0
 918 050a 0120     		movs	r0, #1
 919 050c 294B     		ldr	r3, .L71+68
 920 050e 1860     		str	r0, [r3]
 385:Menu_Functions.c ****             Pin_ExternalLED_Write(1);
 921              		.loc 1 385 0
 922 0510 FFF7FEFF 		bl	Pin_ExternalLED_Write
 923              	.LVL125:
ARM GAS  C:\Users\gaeta\AppData\Local\Temp\cc1gLEEn.s 			page 24


 386:Menu_Functions.c ****             Timer_Stop();
 924              		.loc 1 386 0
 925 0514 FFF7FEFF 		bl	Timer_Stop
 926              	.LVL126:
 387:Menu_Functions.c ****             ADC_DelSig_StopConvert();
 927              		.loc 1 387 0
 928 0518 FFF7FEFF 		bl	ADC_DelSig_StopConvert
 929              	.LVL127:
 930 051c 09E0     		b	.L62
 931              	.L63:
 388:Menu_Functions.c ****         }
 389:Menu_Functions.c ****         else if (ActiveVisualization == 1)
 932              		.loc 1 389 0
 933 051e 254B     		ldr	r3, .L71+68
 934 0520 1B68     		ldr	r3, [r3]
 935 0522 012B     		cmp	r3, #1
 936 0524 05D1     		bne	.L62
 390:Menu_Functions.c ****         {
 391:Menu_Functions.c ****             UART_PutString ("*********    VISUALIZATION ALREADY STARTED    *********\r");
 937              		.loc 1 391 0
 938 0526 2448     		ldr	r0, .L71+72
 939 0528 FFF7FEFF 		bl	UART_PutString
 940              	.LVL128:
 392:Menu_Functions.c ****             UART_PutString("*****************************************************************\r\n")
 941              		.loc 1 392 0
 942 052c 1548     		ldr	r0, .L71+20
 943 052e FFF7FEFF 		bl	UART_PutString
 944              	.LVL129:
 945              	.L62:
 393:Menu_Functions.c ****         }
 394:Menu_Functions.c ****         
 395:Menu_Functions.c ****         UART_ClearRxBuffer();
 946              		.loc 1 395 0
 947 0532 FFF7FEFF 		bl	UART_ClearRxBuffer
 948              	.LVL130:
 949 0536 38BD     		pop	{r3, r4, r5, pc}
 950              	.L60:
 396:Menu_Functions.c ****     }
 397:Menu_Functions.c ****     else if (ch_received == 'u' || ch_received == 'U')
 951              		.loc 1 397 0
 952 0538 7528     		cmp	r0, #117
 953 053a 01D0     		beq	.L64
 954              		.loc 1 397 0 is_stmt 0 discriminator 1
 955 053c 5528     		cmp	r0, #85
 956 053e 15D1     		bne	.L1
 957              	.L64:
 398:Menu_Functions.c ****     {
 399:Menu_Functions.c ****         if (ActiveVisualization == 1)
 958              		.loc 1 399 0 is_stmt 1
 959 0540 1C4B     		ldr	r3, .L71+68
 960 0542 1B68     		ldr	r3, [r3]
 961 0544 012B     		cmp	r3, #1
 962 0546 0BD1     		bne	.L65
 400:Menu_Functions.c ****         {
 401:Menu_Functions.c ****             ActiveVisualization = 0;
 963              		.loc 1 401 0
 964 0548 0020     		movs	r0, #0
ARM GAS  C:\Users\gaeta\AppData\Local\Temp\cc1gLEEn.s 			page 25


 965 054a 1A4B     		ldr	r3, .L71+68
 966 054c 1860     		str	r0, [r3]
 402:Menu_Functions.c ****             Pin_ExternalLED_Write(0);
 967              		.loc 1 402 0
 968 054e FFF7FEFF 		bl	Pin_ExternalLED_Write
 969              	.LVL131:
 403:Menu_Functions.c ****             UART_PutString ("*********    VISUALIZATION STOPPED    *********\r");
 970              		.loc 1 403 0
 971 0552 1A48     		ldr	r0, .L71+76
 972 0554 FFF7FEFF 		bl	UART_PutString
 973              	.LVL132:
 404:Menu_Functions.c ****             UART_PutString("*****************************************************************\r\n")
 974              		.loc 1 404 0
 975 0558 0A48     		ldr	r0, .L71+20
 976 055a FFF7FEFF 		bl	UART_PutString
 977              	.LVL133:
 978 055e 03E0     		b	.L66
 979              	.L65:
 405:Menu_Functions.c ****         }
 406:Menu_Functions.c ****         else if (ActiveVisualization == 0)
 980              		.loc 1 406 0
 981 0560 13B9     		cbnz	r3, .L66
 407:Menu_Functions.c ****         {
 408:Menu_Functions.c ****             UART_PutString("INVALID INPUT....\r\r\r\r\r\r");
 982              		.loc 1 408 0
 983 0562 1748     		ldr	r0, .L71+80
 984 0564 FFF7FEFF 		bl	UART_PutString
 985              	.LVL134:
 986              	.L66:
 409:Menu_Functions.c ****         }
 410:Menu_Functions.c ****         
 411:Menu_Functions.c ****         UART_ClearRxBuffer();
 987              		.loc 1 411 0
 988 0568 FFF7FEFF 		bl	UART_ClearRxBuffer
 989              	.LVL135:
 990              	.L1:
 991 056c 38BD     		pop	{r3, r4, r5, pc}
 992              	.L72:
 993 056e 00BF     		.align	2
 994              	.L71:
 995 0570 00000000 		.word	.LANCHOR0
 996 0574 08030000 		.word	.LC16
 997 0578 E4010000 		.word	.LC9
 998 057c F0010000 		.word	.LC10
 999 0580 1C030000 		.word	.LC17
 1000 0584 88020000 		.word	.LC12
 1001 0588 00000000 		.word	ch_received
 1002 058c 00000000 		.word	TempUnit
 1003 0590 78030000 		.word	.LC18
 1004 0594 94030000 		.word	.LC19
 1005 0598 00000000 		.word	Registration_Active
 1006 059c B4030000 		.word	.LC20
 1007 05a0 EC030000 		.word	.LC21
 1008 05a4 1C040000 		.word	.LC22
 1009 05a8 54040000 		.word	.LC23
 1010 05ac 00000000 		.word	address_index
 1011 05b0 84040000 		.word	.LC24
ARM GAS  C:\Users\gaeta\AppData\Local\Temp\cc1gLEEn.s 			page 26


 1012 05b4 00000000 		.word	ActiveVisualization
 1013 05b8 B8040000 		.word	.LC25
 1014 05bc F4040000 		.word	.LC26
 1015 05c0 28050000 		.word	.LC27
 1016              		.cfi_endproc
 1017              	.LFE64:
 1018              		.size	Custom_ISR_MENU, .-Custom_ISR_MENU
 1019              		.global	WaitTime
 1020              		.global	reg_menu
 1021              		.comm	address_index,2,2
 1022              		.comm	TempUnit,1,1
 1023              		.comm	Sensitivity,1,1
 1024              		.comm	Registration_Active,4,4
 1025              		.comm	MenuActive,4,4
 1026              		.comm	LoopContinue,4,4
 1027              		.comm	ch_received,1,1
 1028              		.comm	ActiveVisualization,4,4
 1029              		.comm	j,2,2
 1030              		.comm	m,2,2
 1031              		.comm	samples,2,2
 1032              		.comm	ctrl_reg5,1,1
 1033              		.comm	fifo_reg,1,1
 1034              		.comm	temp,4,4
 1035              		.comm	p,1,1
 1036              		.comm	PacketReadyFlag,1,1
 1037              		.section	.rodata.str1.4,"aMS",%progbits,1
 1038              		.align	2
 1039              	.LC0:
 1040 0000 2A2A2A2A 		.ascii	"*********    HELP: POSSIBLE SETTINGS    *********\015"
 1040      2A2A2A2A 
 1040      2A202020 
 1040      2048454C 
 1040      503A2050 
 1041 0032 0D00     		.ascii	"\015\000"
 1042              	.LC1:
 1043 0034 662E2046 		.ascii	"f. Full Scale\015\012p. Sampling Freq\015\012t. Set"
 1043      756C6C20 
 1043      5363616C 
 1043      650D0A70 
 1043      2E205361 
 1044 005b 2054656D 		.ascii	" Temperature Unit\015\012v. Print Data on BCP\015\012"
 1044      70657261 
 1044      74757265 
 1044      20556E69 
 1044      740D0A76 
 1045 0084 622E2053 		.ascii	"b. Start Registration\015\012s. Stop Registration\015"
 1045      74617274 
 1045      20526567 
 1045      69737472 
 1045      6174696F 
 1046 00b0 0A0D00   		.ascii	"\012\015\000"
 1047 00b3 00       		.space	1
 1048              	.LC2:
 1049 00b4 2A2A2A2A 		.ascii	"***********************************************\015"
 1049      2A2A2A2A 
 1049      2A2A2A2A 
 1049      2A2A2A2A 
ARM GAS  C:\Users\gaeta\AppData\Local\Temp\cc1gLEEn.s 			page 27


 1049      2A2A2A2A 
 1050 00e4 0A00     		.ascii	"\012\000"
 1051 00e6 0000     		.space	2
 1052              	.LC3:
 1053 00e8 2A2A2A2A 		.ascii	"*********    CHOOSE ACCELEROMETER FULL SCALE    ***"
 1053      2A2A2A2A 
 1053      2A202020 
 1053      2043484F 
 1053      4F534520 
 1054 011b 2A2A2A2A 		.ascii	"******\015\0151. +-2g\015\0122. +-4g\015\0123. +-8g"
 1054      2A2A0D0D 
 1054      312E202B 
 1054      2D32670D 
 1054      0A322E20 
 1055 013c 0D0A342E 		.ascii	"\015\0124. +-16g\015\0125. Go back\015\012\015\000"
 1055      202B2D31 
 1055      36670D0A 
 1055      352E2047 
 1055      6F206261 
 1056 0156 0000     		.space	2
 1057              	.LC4:
 1058 0158 2A2A2A2A 		.ascii	"***************************************************"
 1058      2A2A2A2A 
 1058      2A2A2A2A 
 1058      2A2A2A2A 
 1058      2A2A2A2A 
 1059 018b 2A2A2A2A 		.ascii	"******\015\012\000"
 1059      2A2A0D0A 
 1059      00
 1060              	.LC5:
 1061 0194 594F5520 		.ascii	"YOU CHOOSE +-2g\015\015\000"
 1061      43484F4F 
 1061      5345202B 
 1061      2D32670D 
 1061      0D00
 1062 01a6 0000     		.space	2
 1063              	.LC6:
 1064 01a8 594F5520 		.ascii	"YOU CHOOSE +-4g\015\015\000"
 1064      43484F4F 
 1064      5345202B 
 1064      2D34670D 
 1064      0D00
 1065 01ba 0000     		.space	2
 1066              	.LC7:
 1067 01bc 594F5520 		.ascii	"YOU CHOOSE +-8g\015\015\000"
 1067      43484F4F 
 1067      5345202B 
 1067      2D38670D 
 1067      0D00
 1068 01ce 0000     		.space	2
 1069              	.LC8:
 1070 01d0 594F5520 		.ascii	"YOU CHOOSE +-16g\015\015\000"
 1070      43484F4F 
 1070      5345202B 
 1070      2D313667 
 1070      0D0D00
 1071 01e3 00       		.space	1
ARM GAS  C:\Users\gaeta\AppData\Local\Temp\cc1gLEEn.s 			page 28


 1072              	.LC9:
 1073 01e4 45584954 		.ascii	"EXIT....\015\015\000"
 1073      2E2E2E2E 
 1073      0D0D00
 1074 01ef 00       		.space	1
 1075              	.LC10:
 1076 01f0 494E5641 		.ascii	"INVALID INPUT, EXIT....\015\015\015\015\015\015\000"
 1076      4C494420 
 1076      494E5055 
 1076      542C2045 
 1076      5849542E 
 1077 020e 0000     		.space	2
 1078              	.LC11:
 1079 0210 2A2A2A2A 		.ascii	"*********    CHOOSE ACCELEROMETER SAMPLING FREQUENC"
 1079      2A2A2A2A 
 1079      2A202020 
 1079      2043484F 
 1079      4F534520 
 1080 0243 59202020 		.ascii	"Y    *********\015\0151. 1 Hz\015\0122. 10 Hz\015\012"
 1080      202A2A2A 
 1080      2A2A2A2A 
 1080      2A2A0D0D 
 1080      312E2031 
 1081 0266 332E2032 		.ascii	"3. 25 Hz\015\0124. 50 Hz\015\0125. Go back\015\000"
 1081      3520487A 
 1081      0D0A342E 
 1081      20353020 
 1081      487A0D0A 
 1082 0286 0000     		.space	2
 1083              	.LC12:
 1084 0288 2A2A2A2A 		.ascii	"***************************************************"
 1084      2A2A2A2A 
 1084      2A2A2A2A 
 1084      2A2A2A2A 
 1084      2A2A2A2A 
 1085 02bb 2A2A2A2A 		.ascii	"**************\015\012\000"
 1085      2A2A2A2A 
 1085      2A2A2A2A 
 1085      2A2A0D0A 
 1085      00
 1086              	.LC13:
 1087 02cc 594F5520 		.ascii	"YOU CHOOSE 1 Hz\015\015\000"
 1087      43484F4F 
 1087      53452031 
 1087      20487A0D 
 1087      0D00
 1088 02de 0000     		.space	2
 1089              	.LC14:
 1090 02e0 594F5520 		.ascii	"YOU CHOOSE 10 Hz\015\015\000"
 1090      43484F4F 
 1090      53452031 
 1090      3020487A 
 1090      0D0D00
 1091 02f3 00       		.space	1
 1092              	.LC15:
 1093 02f4 594F5520 		.ascii	"YOU CHOOSE 25 Hz\015\015\000"
 1093      43484F4F 
ARM GAS  C:\Users\gaeta\AppData\Local\Temp\cc1gLEEn.s 			page 29


 1093      53452032 
 1093      3520487A 
 1093      0D0D00
 1094 0307 00       		.space	1
 1095              	.LC16:
 1096 0308 594F5520 		.ascii	"YOU CHOOSE 50 Hz\015\015\000"
 1096      43484F4F 
 1096      53452035 
 1096      3020487A 
 1096      0D0D00
 1097 031b 00       		.space	1
 1098              	.LC17:
 1099 031c 2A2A2A2A 		.ascii	"*********    CHOOSE TEMPERATURE UNIT    *********\015"
 1099      2A2A2A2A 
 1099      2A202020 
 1099      2043484F 
 1099      4F534520 
 1100 034e 0D312E20 		.ascii	"\0151. Celsius\015\0122. Fahrenheit\015\0123. Go Ba"
 1100      43656C73 
 1100      6975730D 
 1100      0A322E20 
 1100      46616872 
 1101 0372 636B0D00 		.ascii	"ck\015\000"
 1102 0376 0000     		.space	2
 1103              	.LC18:
 1104 0378 594F5520 		.ascii	"YOU CHOOSE CELSIUS UNIT\015\015\000"
 1104      43484F4F 
 1104      53452043 
 1104      454C5349 
 1104      55532055 
 1105 0392 0000     		.space	2
 1106              	.LC19:
 1107 0394 594F5520 		.ascii	"YOU CHOOSE FAHRENHEIT UNIT\015\015\000"
 1107      43484F4F 
 1107      53452046 
 1107      41485245 
 1107      4E484549 
 1108 03b1 000000   		.space	3
 1109              	.LC20:
 1110 03b4 2A2A2A2A 		.ascii	"*********    REGISTRATION ALREADY STARTED    ******"
 1110      2A2A2A2A 
 1110      2A202020 
 1110      20524547 
 1110      49535452 
 1111 03e7 2A2A2A0D 		.ascii	"***\015\000"
 1111      00
 1112              	.LC21:
 1113 03ec 2A2A2A2A 		.ascii	"*********    REGISTRATION STARTED    *********\015\000"
 1113      2A2A2A2A 
 1113      2A202020 
 1113      20524547 
 1113      49535452 
 1114              	.LC22:
 1115 041c 2A2A2A2A 		.ascii	"*********    REGISTRATION ALREADY STOPPED    ******"
 1115      2A2A2A2A 
 1115      2A202020 
 1115      20524547 
ARM GAS  C:\Users\gaeta\AppData\Local\Temp\cc1gLEEn.s 			page 30


 1115      49535452 
 1116 044f 2A2A2A0D 		.ascii	"***\015\000"
 1116      00
 1117              	.LC23:
 1118 0454 2A2A2A2A 		.ascii	"*********    REGISTRATION STOPPED    *********\015\000"
 1118      2A2A2A2A 
 1118      2A202020 
 1118      20524547 
 1118      49535452 
 1119              	.LC24:
 1120 0484 2A2A2A2A 		.ascii	"*********    VISUALIZATION STARTED    *********\015"
 1120      2A2A2A2A 
 1120      2A202020 
 1120      20564953 
 1120      55414C49 
 1121 04b4 00       		.ascii	"\000"
 1122 04b5 000000   		.space	3
 1123              	.LC25:
 1124 04b8 2A2A2A2A 		.ascii	"*********    VISUALIZATION ALREADY STARTED    *****"
 1124      2A2A2A2A 
 1124      2A202020 
 1124      20564953 
 1124      55414C49 
 1125 04eb 2A2A2A2A 		.ascii	"****\015\000"
 1125      0D00
 1126 04f1 000000   		.space	3
 1127              	.LC26:
 1128 04f4 2A2A2A2A 		.ascii	"*********    VISUALIZATION STOPPED    *********\015"
 1128      2A2A2A2A 
 1128      2A202020 
 1128      20564953 
 1128      55414C49 
 1129 0524 00       		.ascii	"\000"
 1130 0525 000000   		.space	3
 1131              	.LC27:
 1132 0528 494E5641 		.ascii	"INVALID INPUT....\015\015\015\015\015\015\000"
 1132      4C494420 
 1132      494E5055 
 1132      542E2E2E 
 1132      2E0D0D0D 
 1133              		.bss
 1134              		.align	2
 1135              		.set	.LANCHOR0,. + 0
 1136              		.type	WaitTime, %object
 1137              		.size	WaitTime, 4
 1138              	WaitTime:
 1139 0000 00000000 		.space	4
 1140              		.type	reg_menu, %object
 1141              		.size	reg_menu, 1
 1142              	reg_menu:
 1143 0004 00       		.space	1
 1144              		.text
 1145              	.Letext0:
 1146              		.file 2 "c:\\program files (x86)\\cypress\\psoc creator\\4.3\\psoc creator\\import\\gnu\\arm\\5.4.
 1147              		.file 3 "c:\\program files (x86)\\cypress\\psoc creator\\4.3\\psoc creator\\import\\gnu\\arm\\5.4.
 1148              		.file 4 "Generated_Source\\PSoC5/cytypes.h"
 1149              		.file 5 "Generated_Source\\PSoC5/core_cm3.h"
ARM GAS  C:\Users\gaeta\AppData\Local\Temp\cc1gLEEn.s 			page 31


 1150              		.file 6 "InterruptRoutines.h"
 1151              		.file 7 "FIFO_Functions.h"
 1152              		.file 8 "Menu_Functions.h"
 1153              		.file 9 "Generated_Source\\PSoC5/UART.h"
 1154              		.file 10 "Generated_Source\\PSoC5/CyLib.h"
 1155              		.file 11 "LIS3DH.h"
 1156              		.file 12 "25LC256.h"
 1157              		.file 13 "Generated_Source\\PSoC5/Timer.h"
 1158              		.file 14 "OnBoardLed.h"
 1159              		.file 15 "Generated_Source\\PSoC5/ADC_DelSig.h"
 1160              		.file 16 "Generated_Source\\PSoC5/Pin_ExternalLED.h"