ARM GAS  C:\Users\gaeta\AppData\Local\Temp\cc8n1CGO.s 			page 1


   1              		.syntax unified
   2              		.cpu cortex-m3
   3              		.fpu softvfp
   4              		.eabi_attribute 20, 1
   5              		.eabi_attribute 21, 1
   6              		.eabi_attribute 23, 3
   7              		.eabi_attribute 24, 1
   8              		.eabi_attribute 25, 1
   9              		.eabi_attribute 26, 1
  10              		.eabi_attribute 30, 1
  11              		.eabi_attribute 34, 1
  12              		.eabi_attribute 18, 4
  13              		.thumb
  14              		.syntax unified
  15              		.file	"OnBoardLed.c"
  16              		.text
  17              	.Ltext0:
  18              		.cfi_sections	.debug_frame
  19              		.section	.text.Led_Start,"ax",%progbits
  20              		.align	2
  21              		.global	Led_Start
  22              		.thumb
  23              		.thumb_func
  24              		.type	Led_Start, %function
  25              	Led_Start:
  26              	.LFB63:
  27              		.file 1 "OnBoardLed.c"
   1:OnBoardLed.c  **** /* ========================================
   2:OnBoardLed.c  ****  *
   3:OnBoardLed.c  ****  * Copyright YOUR COMPANY, THE YEAR
   4:OnBoardLed.c  ****  * All Rights Reserved
   5:OnBoardLed.c  ****  * UNPUBLISHED, LICENSED SOFTWARE.
   6:OnBoardLed.c  ****  *
   7:OnBoardLed.c  ****  * CONFIDENTIAL AND PROPRIETARY INFORMATION
   8:OnBoardLed.c  ****  * WHICH IS THE PROPERTY OF your company.
   9:OnBoardLed.c  ****  *
  10:OnBoardLed.c  ****  * ========================================
  11:OnBoardLed.c  ****  *@authors Simone Fiorani, Alessandra Gargiulo, Gaetano Iannuzzi
  12:OnBoardLed.c  ****  *@date 2020
  13:OnBoardLed.c  **** */
  14:OnBoardLed.c  **** #include "OnBoardLed.h"
  15:OnBoardLed.c  **** 
  16:OnBoardLed.c  **** void Led_Start(void)
  17:OnBoardLed.c  **** {
  28              		.loc 1 17 0
  29              		.cfi_startproc
  30              		@ args = 0, pretend = 0, frame = 0
  31              		@ frame_needed = 0, uses_anonymous_args = 0
  32 0000 08B5     		push	{r3, lr}
  33              		.cfi_def_cfa_offset 8
  34              		.cfi_offset 3, -8
  35              		.cfi_offset 14, -4
  18:OnBoardLed.c  ****     // Start PWM connected to Led Channel
  19:OnBoardLed.c  ****     PWM_Led_Start();
  36              		.loc 1 19 0
  37 0002 FFF7FEFF 		bl	PWM_Led_Start
  38              	.LVL0:
ARM GAS  C:\Users\gaeta\AppData\Local\Temp\cc8n1CGO.s 			page 2


  39 0006 08BD     		pop	{r3, pc}
  40              		.cfi_endproc
  41              	.LFE63:
  42              		.size	Led_Start, .-Led_Start
  43              		.section	.text.Led_Stop,"ax",%progbits
  44              		.align	2
  45              		.global	Led_Stop
  46              		.thumb
  47              		.thumb_func
  48              		.type	Led_Stop, %function
  49              	Led_Stop:
  50              	.LFB64:
  20:OnBoardLed.c  **** }
  21:OnBoardLed.c  **** 
  22:OnBoardLed.c  **** void Led_Stop(void)
  23:OnBoardLed.c  **** {
  51              		.loc 1 23 0
  52              		.cfi_startproc
  53              		@ args = 0, pretend = 0, frame = 0
  54              		@ frame_needed = 0, uses_anonymous_args = 0
  55 0000 08B5     		push	{r3, lr}
  56              		.cfi_def_cfa_offset 8
  57              		.cfi_offset 3, -8
  58              		.cfi_offset 14, -4
  24:OnBoardLed.c  ****     // Stop PWM connected to Led Channel
  25:OnBoardLed.c  ****     PWM_Led_Stop();
  59              		.loc 1 25 0
  60 0002 FFF7FEFF 		bl	PWM_Led_Stop
  61              	.LVL1:
  62 0006 08BD     		pop	{r3, pc}
  63              		.cfi_endproc
  64              	.LFE64:
  65              		.size	Led_Stop, .-Led_Stop
  66              		.section	.text.Led_Update,"ax",%progbits
  67              		.align	2
  68              		.global	Led_Update
  69              		.thumb
  70              		.thumb_func
  71              		.type	Led_Update, %function
  72              	Led_Update:
  73              	.LFB65:
  26:OnBoardLed.c  **** }
  27:OnBoardLed.c  **** 
  28:OnBoardLed.c  **** void Led_Update(uint16_t period, uint16_t compare)
  29:OnBoardLed.c  **** {
  74              		.loc 1 29 0
  75              		.cfi_startproc
  76              		@ args = 0, pretend = 0, frame = 0
  77              		@ frame_needed = 0, uses_anonymous_args = 0
  78              	.LVL2:
  79 0000 10B5     		push	{r4, lr}
  80              		.cfi_def_cfa_offset 8
  81              		.cfi_offset 4, -8
  82              		.cfi_offset 14, -4
  83 0002 0C46     		mov	r4, r1
  30:OnBoardLed.c  ****     // Update the new state of blinking of the Led channel
  31:OnBoardLed.c  ****     PWM_Led_WritePeriod(period);  // New period of the PWM
ARM GAS  C:\Users\gaeta\AppData\Local\Temp\cc8n1CGO.s 			page 3


  84              		.loc 1 31 0
  85 0004 FFF7FEFF 		bl	PWM_Led_WritePeriod
  86              	.LVL3:
  32:OnBoardLed.c  ****     PWM_Led_WriteCompare(compare);  // New compare value
  87              		.loc 1 32 0
  88 0008 2046     		mov	r0, r4
  89 000a FFF7FEFF 		bl	PWM_Led_WriteCompare
  90              	.LVL4:
  91 000e 10BD     		pop	{r4, pc}
  92              		.cfi_endproc
  93              	.LFE65:
  94              		.size	Led_Update, .-Led_Update
  95              		.text
  96              	.Letext0:
  97              		.file 2 "c:\\program files (x86)\\cypress\\psoc creator\\4.3\\psoc creator\\import\\gnu\\arm\\5.4.
  98              		.file 3 "c:\\program files (x86)\\cypress\\psoc creator\\4.3\\psoc creator\\import\\gnu\\arm\\5.4.
  99              		.file 4 "Generated_Source\\PSoC5/PWM_Led.h"
 100              		.file 5 "Generated_Source\\PSoC5/core_cm3.h"