ARM GAS  C:\Users\gaeta\AppData\Local\Temp\ccveQHwj.s 			page 1


   1              		.syntax unified
   2              		.cpu cortex-m3
   3              		.fpu softvfp
   4              		.eabi_attribute 20, 1
   5              		.eabi_attribute 21, 1
   6              		.eabi_attribute 23, 3
   7              		.eabi_attribute 24, 1
   8              		.eabi_attribute 25, 1
   9              		.eabi_attribute 26, 1
  10              		.eabi_attribute 30, 1
  11              		.eabi_attribute 34, 1
  12              		.eabi_attribute 18, 4
  13              		.thumb
  14              		.syntax unified
  15              		.file	"SPI_Interface.c"
  16              		.text
  17              	.Ltext0:
  18              		.cfi_sections	.debug_frame
  19              		.section	.text.SPI_Interface_tradeByte,"ax",%progbits
  20              		.align	2
  21              		.global	SPI_Interface_tradeByte
  22              		.thumb
  23              		.thumb_func
  24              		.type	SPI_Interface_tradeByte, %function
  25              	SPI_Interface_tradeByte:
  26              	.LFB0:
  27              		.file 1 "SPI_Interface.c"
   1:SPI_Interface.c **** /**
   2:SPI_Interface.c ****  * @file SPI_Interface.c
   3:SPI_Interface.c ****  * @brief Functions required to interface with the SPI MASTER (SPIM).
   4:SPI_Interface.c ****  * 
   5:SPI_Interface.c ****  * This source code file contains macros and functions to interface
   6:SPI_Interface.c ****  * with the SPI Master (SPIM) of the PSoC.
   7:SPI_Interface.c ****  *
   8:SPI_Interface.c ****  * @author Mattia Pesenti
   9:SPI_Interface.c ****  * @date April 9, 2020
  10:SPI_Interface.c **** */
  11:SPI_Interface.c **** 
  12:SPI_Interface.c **** /*											 
  13:SPI_Interface.c ****  * NOTE: in the .h Lib of the SPI Slave     		   *
  14:SPI_Interface.c ****  *       you need to define SLAVE_CS_Write  		   *
  15:SPI_Interface.c ****  *       with the name of the Chip Select    		   * 
  16:SPI_Interface.c ****  *       pin (as defined in the Top Design)  		   *
  17:SPI_Interface.c ****  * E.g.: #define SLAVE_CS_Write CS_1_Write (default)   *
  18:SPI_Interface.c **** */
  19:SPI_Interface.c **** 
  20:SPI_Interface.c **** #include "SPI_Interface.h"
  21:SPI_Interface.c **** 
  22:SPI_Interface.c **** #ifndef SLAVE_CS_Write
  23:SPI_Interface.c ****     #define SLAVE_CS_Write      CS_1_Write
  24:SPI_Interface.c ****     #define SLAVE_CS_Write_2    CS_2_Write
  25:SPI_Interface.c **** #endif
  26:SPI_Interface.c **** 
  27:SPI_Interface.c **** /*
  28:SPI_Interface.c **** * @brief Full-Duplex, Single-Operation 1-Byte Trade
  29:SPI_Interface.c **** */
  30:SPI_Interface.c **** uint8_t SPI_Interface_tradeByte(uint8_t byte) {
ARM GAS  C:\Users\gaeta\AppData\Local\Temp\ccveQHwj.s 			page 2


  28              		.loc 1 30 0
  29              		.cfi_startproc
  30              		@ args = 0, pretend = 0, frame = 0
  31              		@ frame_needed = 0, uses_anonymous_args = 0
  32              	.LVL0:
  33 0000 10B5     		push	{r4, lr}
  34              		.cfi_def_cfa_offset 8
  35              		.cfi_offset 4, -8
  36              		.cfi_offset 14, -4
  37 0002 0446     		mov	r4, r0
  31:SPI_Interface.c **** 	
  32:SPI_Interface.c **** 	/* Enable the Slave */
  33:SPI_Interface.c **** 	SLAVE_CS_Write(0);
  38              		.loc 1 33 0
  39 0004 0020     		movs	r0, #0
  40              	.LVL1:
  41 0006 FFF7FEFF 		bl	CS_1_Write
  42              	.LVL2:
  34:SPI_Interface.c **** 	
  35:SPI_Interface.c **** 	/* Load the TX Buffer */
  36:SPI_Interface.c **** 	SPIM_1_WriteTxData(byte);
  43              		.loc 1 36 0
  44 000a 2046     		mov	r0, r4
  45 000c FFF7FEFF 		bl	SPIM_1_WriteTxData
  46              	.LVL3:
  47              	.L2:
  37:SPI_Interface.c **** 	
  38:SPI_Interface.c **** 	/* Wait for TX */
  39:SPI_Interface.c ****     while( !(SPIM_1_ReadTxStatus() & SPIM_1_STS_BYTE_COMPLETE) );
  48              		.loc 1 39 0 discriminator 1
  49 0010 FFF7FEFF 		bl	SPIM_1_ReadTxStatus
  50              	.LVL4:
  51 0014 10F0080F 		tst	r0, #8
  52 0018 FAD0     		beq	.L2
  40:SPI_Interface.c **** 	
  41:SPI_Interface.c **** 	/* Read the RX Buffer */
  42:SPI_Interface.c **** 	uint8_t data = SPIM_1_ReadRxData();
  53              		.loc 1 42 0
  54 001a FFF7FEFF 		bl	SPIM_1_ReadRxData
  55              	.LVL5:
  56 001e 0446     		mov	r4, r0
  57              	.LVL6:
  43:SPI_Interface.c **** 	
  44:SPI_Interface.c **** 	/* Disable the Slave */
  45:SPI_Interface.c **** 	SLAVE_CS_Write(1);
  58              		.loc 1 45 0
  59 0020 0120     		movs	r0, #1
  60 0022 FFF7FEFF 		bl	CS_1_Write
  61              	.LVL7:
  46:SPI_Interface.c **** 	
  47:SPI_Interface.c **** 	return data;
  48:SPI_Interface.c ****     
  49:SPI_Interface.c **** }
  62              		.loc 1 49 0
  63 0026 2046     		mov	r0, r4
  64 0028 10BD     		pop	{r4, pc}
  65              		.cfi_endproc
ARM GAS  C:\Users\gaeta\AppData\Local\Temp\ccveQHwj.s 			page 3


  66              	.LFE0:
  67              		.size	SPI_Interface_tradeByte, .-SPI_Interface_tradeByte
  68              		.section	.text.SPI_Interface_ReadByte,"ax",%progbits
  69              		.align	2
  70              		.global	SPI_Interface_ReadByte
  71              		.thumb
  72              		.thumb_func
  73              		.type	SPI_Interface_ReadByte, %function
  74              	SPI_Interface_ReadByte:
  75              	.LFB1:
  50:SPI_Interface.c **** 
  51:SPI_Interface.c **** 
  52:SPI_Interface.c **** /*
  53:SPI_Interface.c **** * @brief RX-only, Dual-Operation 1-Byte READ
  54:SPI_Interface.c **** */
  55:SPI_Interface.c **** uint8_t SPI_Interface_ReadByte(uint8_t byteTX) {
  76              		.loc 1 55 0
  77              		.cfi_startproc
  78              		@ args = 0, pretend = 0, frame = 0
  79              		@ frame_needed = 0, uses_anonymous_args = 0
  80              	.LVL8:
  81 0000 10B5     		push	{r4, lr}
  82              		.cfi_def_cfa_offset 8
  83              		.cfi_offset 4, -8
  84              		.cfi_offset 14, -4
  85 0002 0446     		mov	r4, r0
  56:SPI_Interface.c **** 	
  57:SPI_Interface.c **** 	/* Enable the Slave */
  58:SPI_Interface.c **** 	SLAVE_CS_Write(0);
  86              		.loc 1 58 0
  87 0004 0020     		movs	r0, #0
  88              	.LVL9:
  89 0006 FFF7FEFF 		bl	CS_1_Write
  90              	.LVL10:
  59:SPI_Interface.c **** 	
  60:SPI_Interface.c **** 	/* Load the TX Buffer */
  61:SPI_Interface.c **** 	SPIM_1_WriteTxData(byteTX);
  91              		.loc 1 61 0
  92 000a 2046     		mov	r0, r4
  93 000c FFF7FEFF 		bl	SPIM_1_WriteTxData
  94              	.LVL11:
  62:SPI_Interface.c **** 	
  63:SPI_Interface.c **** 	/* SPI Dummy Byte */
  64:SPI_Interface.c **** 	SPIM_1_WriteTxData(SPI_DUMMY_BYTE);
  95              		.loc 1 64 0
  96 0010 0020     		movs	r0, #0
  97 0012 FFF7FEFF 		bl	SPIM_1_WriteTxData
  98              	.LVL12:
  99              	.L5:
  65:SPI_Interface.c **** 	
  66:SPI_Interface.c **** 	/* Wait for TX/RX */
  67:SPI_Interface.c ****     while(!(SPIM_1_ReadTxStatus() & SPIM_1_STS_SPI_DONE));
 100              		.loc 1 67 0 discriminator 1
 101 0016 FFF7FEFF 		bl	SPIM_1_ReadTxStatus
 102              	.LVL13:
 103 001a 10F0010F 		tst	r0, #1
 104 001e FAD0     		beq	.L5
ARM GAS  C:\Users\gaeta\AppData\Local\Temp\ccveQHwj.s 			page 4


  68:SPI_Interface.c **** 	
  69:SPI_Interface.c **** 	/* Read the RX Buffer */
  70:SPI_Interface.c **** 	SPIM_1_ReadRxData();
 105              		.loc 1 70 0
 106 0020 FFF7FEFF 		bl	SPIM_1_ReadRxData
 107              	.LVL14:
  71:SPI_Interface.c **** 	uint8_t byteRX = SPIM_1_ReadRxData();
 108              		.loc 1 71 0
 109 0024 FFF7FEFF 		bl	SPIM_1_ReadRxData
 110              	.LVL15:
 111 0028 0446     		mov	r4, r0
 112              	.LVL16:
  72:SPI_Interface.c **** 	
  73:SPI_Interface.c **** 	/* Disable the Slave */
  74:SPI_Interface.c **** 	SLAVE_CS_Write(1);
 113              		.loc 1 74 0
 114 002a 0120     		movs	r0, #1
 115 002c FFF7FEFF 		bl	CS_1_Write
 116              	.LVL17:
  75:SPI_Interface.c **** 	
  76:SPI_Interface.c **** 	return byteRX;	
  77:SPI_Interface.c **** 	
  78:SPI_Interface.c **** }
 117              		.loc 1 78 0
 118 0030 2046     		mov	r0, r4
 119 0032 10BD     		pop	{r4, pc}
 120              		.cfi_endproc
 121              	.LFE1:
 122              		.size	SPI_Interface_ReadByte, .-SPI_Interface_ReadByte
 123              		.section	.text.SPI_Interface_Multi_Trade,"ax",%progbits
 124              		.align	2
 125              		.global	SPI_Interface_Multi_Trade
 126              		.thumb
 127              		.thumb_func
 128              		.type	SPI_Interface_Multi_Trade, %function
 129              	SPI_Interface_Multi_Trade:
 130              	.LFB2:
  79:SPI_Interface.c **** 
  80:SPI_Interface.c **** 
  81:SPI_Interface.c **** /*
  82:SPI_Interface.c **** * @brief Full-Duplex, Multi-Byte Trade (RX/TX)
  83:SPI_Interface.c **** */
  84:SPI_Interface.c **** void SPI_Interface_Multi_Trade(uint8_t* dataTX, uint8_t* dataRX, uint8_t nBytes) {
 131              		.loc 1 84 0
 132              		.cfi_startproc
 133              		@ args = 0, pretend = 0, frame = 0
 134              		@ frame_needed = 0, uses_anonymous_args = 0
 135              		@ link register save eliminated.
 136              	.LVL18:
 137 0000 7047     		bx	lr
 138              		.cfi_endproc
 139              	.LFE2:
 140              		.size	SPI_Interface_Multi_Trade, .-SPI_Interface_Multi_Trade
 141 0002 00BF     		.section	.text.SPI_Interface_Multi_RW,"ax",%progbits
 142              		.align	2
 143              		.global	SPI_Interface_Multi_RW
 144              		.thumb
ARM GAS  C:\Users\gaeta\AppData\Local\Temp\ccveQHwj.s 			page 5


 145              		.thumb_func
 146              		.type	SPI_Interface_Multi_RW, %function
 147              	SPI_Interface_Multi_RW:
 148              	.LFB3:
  85:SPI_Interface.c **** 	
  86:SPI_Interface.c ****     
  87:SPI_Interface.c **** 	
  88:SPI_Interface.c **** }
  89:SPI_Interface.c **** 
  90:SPI_Interface.c **** /*
  91:SPI_Interface.c **** * @brief RX-only, Dual-Operation Multi-Byte READ/WRITE
  92:SPI_Interface.c **** */
  93:SPI_Interface.c **** void SPI_Interface_Multi_RW(uint8_t* dataTX, uint8_t bytesTX, uint8_t* dataRX, uint8_t bytesRX) {
 149              		.loc 1 93 0
 150              		.cfi_startproc
 151              		@ args = 0, pretend = 0, frame = 8
 152              		@ frame_needed = 0, uses_anonymous_args = 0
 153              	.LVL19:
 154              		.loc 1 93 0
 155 0000 2DE9F043 		push	{r4, r5, r6, r7, r8, r9, lr}
 156              		.cfi_def_cfa_offset 28
 157              		.cfi_offset 4, -28
 158              		.cfi_offset 5, -24
 159              		.cfi_offset 6, -20
 160              		.cfi_offset 7, -16
 161              		.cfi_offset 8, -12
 162              		.cfi_offset 9, -8
 163              		.cfi_offset 14, -4
 164 0004 83B0     		sub	sp, sp, #12
 165              		.cfi_def_cfa_offset 40
 166 0006 0646     		mov	r6, r0
 167 0008 0C46     		mov	r4, r1
 168 000a 1746     		mov	r7, r2
 169 000c 9846     		mov	r8, r3
  94:SPI_Interface.c **** 	
  95:SPI_Interface.c **** 	/* Enable the Slave */
  96:SPI_Interface.c ****     SLAVE_CS_Write(0);
 170              		.loc 1 96 0
 171 000e 0020     		movs	r0, #0
 172              	.LVL20:
 173 0010 FFF7FEFF 		bl	CS_1_Write
 174              	.LVL21:
  97:SPI_Interface.c ****         
  98:SPI_Interface.c ****     int8_t count = bytesTX, index = 0;
 175              		.loc 1 98 0
 176 0014 64B2     		sxtb	r4, r4
 177              	.LVL22:
 178 0016 0025     		movs	r5, #0
  99:SPI_Interface.c ****     	
 100:SPI_Interface.c ****     /* Transmit Data */
 101:SPI_Interface.c ****     while ( count > 0 ) {
 179              		.loc 1 101 0
 180 0018 11E0     		b	.L9
 181              	.LVL23:
 182              	.L11:
 102:SPI_Interface.c ****             
 103:SPI_Interface.c ****     	/* Load the TX buffer with Data*/
ARM GAS  C:\Users\gaeta\AppData\Local\Temp\ccveQHwj.s 			page 6


 104:SPI_Interface.c ****         SPIM_1_PutArray(&dataTX[index*SPI_TxBufferSize], (count > SPI_TxBufferSize ? SPI_TxBufferSi
 183              		.loc 1 104 0
 184 001a 2146     		mov	r1, r4
 185 001c 082C     		cmp	r4, #8
 186 001e A8BF     		it	ge
 187 0020 0821     		movge	r1, #8
 188 0022 C9B2     		uxtb	r1, r1
 189 0024 06EBC500 		add	r0, r6, r5, lsl #3
 190 0028 FFF7FEFF 		bl	SPIM_1_PutArray
 191              	.LVL24:
 192              	.L10:
 105:SPI_Interface.c ****         /* Wait for TX */
 106:SPI_Interface.c ****         while( !(SPIM_1_ReadTxStatus() & SPIM_1_STS_SPI_DONE) );
 193              		.loc 1 106 0 discriminator 1
 194 002c FFF7FEFF 		bl	SPIM_1_ReadTxStatus
 195              	.LVL25:
 196 0030 10F0010F 		tst	r0, #1
 197 0034 FAD0     		beq	.L10
 107:SPI_Interface.c ****         
 108:SPI_Interface.c ****         /* Update count */
 109:SPI_Interface.c ****         count -= SPI_TxBufferSize;
 198              		.loc 1 109 0
 199 0036 083C     		subs	r4, r4, #8
 200              	.LVL26:
 201 0038 64B2     		sxtb	r4, r4
 202              	.LVL27:
 110:SPI_Interface.c ****         index++;
 203              		.loc 1 110 0
 204 003a 0135     		adds	r5, r5, #1
 205              	.LVL28:
 206 003c 6DB2     		sxtb	r5, r5
 207              	.LVL29:
 208              	.L9:
 101:SPI_Interface.c ****             
 209              		.loc 1 101 0
 210 003e 002C     		cmp	r4, #0
 211 0040 EBDC     		bgt	.L11
 111:SPI_Interface.c ****            
 112:SPI_Interface.c ****     }
 113:SPI_Interface.c ****         
 114:SPI_Interface.c ****     /* Clear the RX Buffer */
 115:SPI_Interface.c ****     SPIM_1_ClearFIFO();
 212              		.loc 1 115 0
 213 0042 FFF7FEFF 		bl	SPIM_1_ClearFIFO
 214              	.LVL30:
 116:SPI_Interface.c ****     SPIM_1_ClearRxBuffer();
 215              		.loc 1 116 0
 216 0046 FFF7FEFF 		bl	SPIM_1_ClearRxBuffer
 217              	.LVL31:
 117:SPI_Interface.c ****         
 118:SPI_Interface.c ****     /* Init the Dummy TX Buffer */
 119:SPI_Interface.c ****     uint8_t dummyTX[SPI_RxBufferSize];
 120:SPI_Interface.c ****     memset(dummyTX, SPI_DUMMY_BYTE, SPI_RxBufferSize);
 218              		.loc 1 120 0
 219 004a 0026     		movs	r6, #0
 220              	.LVL32:
 221 004c 0096     		str	r6, [sp]
ARM GAS  C:\Users\gaeta\AppData\Local\Temp\ccveQHwj.s 			page 7


 222 004e 0196     		str	r6, [sp, #4]
 121:SPI_Interface.c ****         
 122:SPI_Interface.c ****     /* Update count for RX */
 123:SPI_Interface.c ****     count = bytesRX;
 223              		.loc 1 123 0
 224 0050 4FFA88F8 		sxtb	r8, r8
 225              	.LVL33:
 124:SPI_Interface.c ****     index = 0;
 125:SPI_Interface.c ****         
 126:SPI_Interface.c ****     /* Get the RX Data */
 127:SPI_Interface.c ****     while ( count > 0 ) {
 226              		.loc 1 127 0
 227 0054 20E0     		b	.L12
 228              	.LVL34:
 229              	.L16:
 128:SPI_Interface.c ****          
 129:SPI_Interface.c ****         /* Load the TX buffer with Dummy Bytes*/
 130:SPI_Interface.c ****         SPIM_1_PutArray(dummyTX, (count > SPI_TxBufferSize ? SPI_TxBufferSize : count));
 230              		.loc 1 130 0
 231 0056 C146     		mov	r9, r8
 232 0058 B8F1080F 		cmp	r8, #8
 233 005c A8BF     		it	ge
 234 005e 4FF00809 		movge	r9, #8
 235 0062 5FFA89F1 		uxtb	r1, r9
 236 0066 6846     		mov	r0, sp
 237 0068 FFF7FEFF 		bl	SPIM_1_PutArray
 238              	.LVL35:
 239              	.L13:
 131:SPI_Interface.c ****         /* Wait for TX */
 132:SPI_Interface.c ****         while( !(SPIM_1_ReadTxStatus() & SPIM_1_STS_SPI_DONE) );
 240              		.loc 1 132 0 discriminator 1
 241 006c FFF7FEFF 		bl	SPIM_1_ReadTxStatus
 242              	.LVL36:
 243 0070 10F0010F 		tst	r0, #1
 244 0074 FAD0     		beq	.L13
 245 0076 0024     		movs	r4, #0
 246 0078 06E0     		b	.L14
 247              	.LVL37:
 248              	.L15:
 249              	.LBB2:
 133:SPI_Interface.c ****         /* Read the RX Buffer */
 134:SPI_Interface.c ****         for( uint8_t j = 0; j < (count > SPI_TxBufferSize ? SPI_TxBufferSize : count); j++ ) {
 135:SPI_Interface.c ****             dataRX[j + index*SPI_RxBufferSize] = SPIM_1_ReadRxData();   
 250              		.loc 1 135 0 discriminator 3
 251 007a 04EBC605 		add	r5, r4, r6, lsl #3
 252 007e FFF7FEFF 		bl	SPIM_1_ReadRxData
 253              	.LVL38:
 254 0082 7855     		strb	r0, [r7, r5]
 134:SPI_Interface.c ****             dataRX[j + index*SPI_RxBufferSize] = SPIM_1_ReadRxData();   
 255              		.loc 1 134 0 discriminator 3
 256 0084 0134     		adds	r4, r4, #1
 257              	.LVL39:
 258 0086 E4B2     		uxtb	r4, r4
 259              	.LVL40:
 260              	.L14:
 134:SPI_Interface.c ****             dataRX[j + index*SPI_RxBufferSize] = SPIM_1_ReadRxData();   
 261              		.loc 1 134 0 is_stmt 0 discriminator 1
ARM GAS  C:\Users\gaeta\AppData\Local\Temp\ccveQHwj.s 			page 8


 262 0088 4C45     		cmp	r4, r9
 263 008a F6DB     		blt	.L15
 264              	.LBE2:
 136:SPI_Interface.c ****         }
 137:SPI_Interface.c ****         
 138:SPI_Interface.c ****         count -= SPI_RxBufferSize;
 265              		.loc 1 138 0 is_stmt 1
 266 008c A8F10808 		sub	r8, r8, #8
 267              	.LVL41:
 268 0090 4FFA88F8 		sxtb	r8, r8
 269              	.LVL42:
 139:SPI_Interface.c ****         index++;
 270              		.loc 1 139 0
 271 0094 0136     		adds	r6, r6, #1
 272              	.LVL43:
 273 0096 76B2     		sxtb	r6, r6
 274              	.LVL44:
 275              	.L12:
 127:SPI_Interface.c ****          
 276              		.loc 1 127 0
 277 0098 B8F1000F 		cmp	r8, #0
 278 009c DBDC     		bgt	.L16
 140:SPI_Interface.c ****         
 141:SPI_Interface.c ****     }
 142:SPI_Interface.c ****         
 143:SPI_Interface.c ****     /* Disable the Slave */
 144:SPI_Interface.c ****     SLAVE_CS_Write(1);
 279              		.loc 1 144 0
 280 009e 0120     		movs	r0, #1
 281 00a0 FFF7FEFF 		bl	CS_1_Write
 282              	.LVL45:
 145:SPI_Interface.c ****     	
 146:SPI_Interface.c ****     /* Clear */
 147:SPI_Interface.c ****     SPIM_1_ClearFIFO();
 283              		.loc 1 147 0
 284 00a4 FFF7FEFF 		bl	SPIM_1_ClearFIFO
 285              	.LVL46:
 148:SPI_Interface.c ****     SPIM_1_ClearRxBuffer();
 286              		.loc 1 148 0
 287 00a8 FFF7FEFF 		bl	SPIM_1_ClearRxBuffer
 288              	.LVL47:
 149:SPI_Interface.c ****     SPIM_1_ClearTxBuffer();
 289              		.loc 1 149 0
 290 00ac FFF7FEFF 		bl	SPIM_1_ClearTxBuffer
 291              	.LVL48:
 150:SPI_Interface.c **** 
 151:SPI_Interface.c **** }
 292              		.loc 1 151 0
 293 00b0 03B0     		add	sp, sp, #12
 294              		.cfi_def_cfa_offset 28
 295              		@ sp needed
 296 00b2 BDE8F083 		pop	{r4, r5, r6, r7, r8, r9, pc}
 297              		.cfi_endproc
 298              	.LFE3:
 299              		.size	SPI_Interface_Multi_RW, .-SPI_Interface_Multi_RW
 300 00b6 00BF     		.section	.text.ACC_SPI_Interface_tradeByte,"ax",%progbits
 301              		.align	2
ARM GAS  C:\Users\gaeta\AppData\Local\Temp\ccveQHwj.s 			page 9


 302              		.global	ACC_SPI_Interface_tradeByte
 303              		.thumb
 304              		.thumb_func
 305              		.type	ACC_SPI_Interface_tradeByte, %function
 306              	ACC_SPI_Interface_tradeByte:
 307              	.LFB4:
 152:SPI_Interface.c **** 
 153:SPI_Interface.c **** //////////////////////////////////////////////////////////
 154:SPI_Interface.c **** 
 155:SPI_Interface.c **** uint8_t ACC_SPI_Interface_tradeByte(uint8_t byte) {
 308              		.loc 1 155 0
 309              		.cfi_startproc
 310              		@ args = 0, pretend = 0, frame = 0
 311              		@ frame_needed = 0, uses_anonymous_args = 0
 312              	.LVL49:
 313 0000 10B5     		push	{r4, lr}
 314              		.cfi_def_cfa_offset 8
 315              		.cfi_offset 4, -8
 316              		.cfi_offset 14, -4
 317 0002 0446     		mov	r4, r0
 156:SPI_Interface.c **** 	
 157:SPI_Interface.c **** 	/* Enable the Slave */
 158:SPI_Interface.c **** 	SLAVE_CS_Write_2(0);
 318              		.loc 1 158 0
 319 0004 0020     		movs	r0, #0
 320              	.LVL50:
 321 0006 FFF7FEFF 		bl	CS_2_Write
 322              	.LVL51:
 159:SPI_Interface.c **** 	
 160:SPI_Interface.c **** 	/* Load the TX Buffer */
 161:SPI_Interface.c **** 	SPIM_2_WriteTxData(byte);
 323              		.loc 1 161 0
 324 000a 2046     		mov	r0, r4
 325 000c FFF7FEFF 		bl	SPIM_2_WriteTxData
 326              	.LVL52:
 327              	.L19:
 162:SPI_Interface.c **** 	
 163:SPI_Interface.c **** 	/* Wait for TX */
 164:SPI_Interface.c ****     while( !(SPIM_2_ReadTxStatus() & SPIM_1_STS_BYTE_COMPLETE) );
 328              		.loc 1 164 0 discriminator 1
 329 0010 FFF7FEFF 		bl	SPIM_2_ReadTxStatus
 330              	.LVL53:
 331 0014 10F0080F 		tst	r0, #8
 332 0018 FAD0     		beq	.L19
 165:SPI_Interface.c **** 	
 166:SPI_Interface.c **** 	/* Read the RX Buffer */
 167:SPI_Interface.c **** 	uint8_t data = SPIM_2_ReadRxData();
 333              		.loc 1 167 0
 334 001a FFF7FEFF 		bl	SPIM_2_ReadRxData
 335              	.LVL54:
 336 001e 0446     		mov	r4, r0
 337              	.LVL55:
 168:SPI_Interface.c **** 	
 169:SPI_Interface.c **** 	/* Disable the Slave */
 170:SPI_Interface.c **** 	SLAVE_CS_Write_2(1);
 338              		.loc 1 170 0
 339 0020 0120     		movs	r0, #1
ARM GAS  C:\Users\gaeta\AppData\Local\Temp\ccveQHwj.s 			page 10


 340 0022 FFF7FEFF 		bl	CS_2_Write
 341              	.LVL56:
 171:SPI_Interface.c **** 	
 172:SPI_Interface.c **** 	return data;
 173:SPI_Interface.c ****     
 174:SPI_Interface.c **** }
 342              		.loc 1 174 0
 343 0026 2046     		mov	r0, r4
 344 0028 10BD     		pop	{r4, pc}
 345              		.cfi_endproc
 346              	.LFE4:
 347              		.size	ACC_SPI_Interface_tradeByte, .-ACC_SPI_Interface_tradeByte
 348 002a 00BF     		.section	.text.ACC_SPI_Interface_ReadByte,"ax",%progbits
 349              		.align	2
 350              		.global	ACC_SPI_Interface_ReadByte
 351              		.thumb
 352              		.thumb_func
 353              		.type	ACC_SPI_Interface_ReadByte, %function
 354              	ACC_SPI_Interface_ReadByte:
 355              	.LFB5:
 175:SPI_Interface.c **** 
 176:SPI_Interface.c **** uint8_t ACC_SPI_Interface_ReadByte(uint8_t byteTX) {
 356              		.loc 1 176 0
 357              		.cfi_startproc
 358              		@ args = 0, pretend = 0, frame = 0
 359              		@ frame_needed = 0, uses_anonymous_args = 0
 360              	.LVL57:
 361 0000 10B5     		push	{r4, lr}
 362              		.cfi_def_cfa_offset 8
 363              		.cfi_offset 4, -8
 364              		.cfi_offset 14, -4
 365 0002 0446     		mov	r4, r0
 177:SPI_Interface.c **** 	
 178:SPI_Interface.c **** 	/* Enable the Slave */
 179:SPI_Interface.c **** 	SLAVE_CS_Write_2(0);
 366              		.loc 1 179 0
 367 0004 0020     		movs	r0, #0
 368              	.LVL58:
 369 0006 FFF7FEFF 		bl	CS_2_Write
 370              	.LVL59:
 180:SPI_Interface.c **** 	
 181:SPI_Interface.c **** 	/* Load the TX Buffer */
 182:SPI_Interface.c **** 	SPIM_2_WriteTxData(byteTX);
 371              		.loc 1 182 0
 372 000a 2046     		mov	r0, r4
 373 000c FFF7FEFF 		bl	SPIM_2_WriteTxData
 374              	.LVL60:
 183:SPI_Interface.c **** 	
 184:SPI_Interface.c **** 	/* SPI Dummy Byte */
 185:SPI_Interface.c **** 	SPIM_2_WriteTxData(SPI_DUMMY_BYTE);
 375              		.loc 1 185 0
 376 0010 0020     		movs	r0, #0
 377 0012 FFF7FEFF 		bl	SPIM_2_WriteTxData
 378              	.LVL61:
 379              	.L22:
 186:SPI_Interface.c **** 	
 187:SPI_Interface.c **** 	/* Wait for TX/RX */
ARM GAS  C:\Users\gaeta\AppData\Local\Temp\ccveQHwj.s 			page 11


 188:SPI_Interface.c ****     while(!(SPIM_2_ReadTxStatus() & SPIM_2_STS_SPI_DONE));
 380              		.loc 1 188 0 discriminator 1
 381 0016 FFF7FEFF 		bl	SPIM_2_ReadTxStatus
 382              	.LVL62:
 383 001a 10F0010F 		tst	r0, #1
 384 001e FAD0     		beq	.L22
 189:SPI_Interface.c **** 	
 190:SPI_Interface.c **** 	/* Read the RX Buffer */
 191:SPI_Interface.c **** 	SPIM_2_ReadRxData();
 385              		.loc 1 191 0
 386 0020 FFF7FEFF 		bl	SPIM_2_ReadRxData
 387              	.LVL63:
 192:SPI_Interface.c **** 	uint8_t byteRX = SPIM_2_ReadRxData();
 388              		.loc 1 192 0
 389 0024 FFF7FEFF 		bl	SPIM_2_ReadRxData
 390              	.LVL64:
 391 0028 0446     		mov	r4, r0
 392              	.LVL65:
 193:SPI_Interface.c **** 	
 194:SPI_Interface.c **** 	/* Disable the Slave */
 195:SPI_Interface.c **** 	SLAVE_CS_Write_2(1);
 393              		.loc 1 195 0
 394 002a 0120     		movs	r0, #1
 395 002c FFF7FEFF 		bl	CS_2_Write
 396              	.LVL66:
 196:SPI_Interface.c **** 	
 197:SPI_Interface.c **** 	return byteRX;	
 198:SPI_Interface.c **** 	
 199:SPI_Interface.c **** }
 397              		.loc 1 199 0
 398 0030 2046     		mov	r0, r4
 399 0032 10BD     		pop	{r4, pc}
 400              		.cfi_endproc
 401              	.LFE5:
 402              		.size	ACC_SPI_Interface_ReadByte, .-ACC_SPI_Interface_ReadByte
 403              		.section	.text.ACC_SPI_Interface_Multi_RW,"ax",%progbits
 404              		.align	2
 405              		.global	ACC_SPI_Interface_Multi_RW
 406              		.thumb
 407              		.thumb_func
 408              		.type	ACC_SPI_Interface_Multi_RW, %function
 409              	ACC_SPI_Interface_Multi_RW:
 410              	.LFB6:
 200:SPI_Interface.c **** 
 201:SPI_Interface.c **** void ACC_SPI_Interface_Multi_RW(uint8_t* dataTX, uint8_t bytesTX, uint8_t* dataRX, uint8_t bytesRX)
 411              		.loc 1 201 0
 412              		.cfi_startproc
 413              		@ args = 0, pretend = 0, frame = 8
 414              		@ frame_needed = 0, uses_anonymous_args = 0
 415              	.LVL67:
 416 0000 2DE9F043 		push	{r4, r5, r6, r7, r8, r9, lr}
 417              		.cfi_def_cfa_offset 28
 418              		.cfi_offset 4, -28
 419              		.cfi_offset 5, -24
 420              		.cfi_offset 6, -20
 421              		.cfi_offset 7, -16
 422              		.cfi_offset 8, -12
ARM GAS  C:\Users\gaeta\AppData\Local\Temp\ccveQHwj.s 			page 12


 423              		.cfi_offset 9, -8
 424              		.cfi_offset 14, -4
 425 0004 83B0     		sub	sp, sp, #12
 426              		.cfi_def_cfa_offset 40
 427 0006 0646     		mov	r6, r0
 428 0008 0C46     		mov	r4, r1
 429 000a 1746     		mov	r7, r2
 430 000c 9846     		mov	r8, r3
 202:SPI_Interface.c **** 	
 203:SPI_Interface.c **** 	/* Enable the Slave */
 204:SPI_Interface.c ****     SLAVE_CS_Write_2(0);
 431              		.loc 1 204 0
 432 000e 0020     		movs	r0, #0
 433              	.LVL68:
 434 0010 FFF7FEFF 		bl	CS_2_Write
 435              	.LVL69:
 205:SPI_Interface.c ****         
 206:SPI_Interface.c ****     int8_t count = bytesTX, index = 0;
 436              		.loc 1 206 0
 437 0014 64B2     		sxtb	r4, r4
 438              	.LVL70:
 439 0016 0025     		movs	r5, #0
 207:SPI_Interface.c ****     	
 208:SPI_Interface.c ****     /* Transmit Data */
 209:SPI_Interface.c ****     while ( count > 0 ) {
 440              		.loc 1 209 0
 441 0018 11E0     		b	.L25
 442              	.LVL71:
 443              	.L27:
 210:SPI_Interface.c ****             
 211:SPI_Interface.c ****     	/* Load the TX buffer with Data*/
 212:SPI_Interface.c ****         SPIM_2_PutArray(&dataTX[index*SPI_TxBufferSize], (count > SPI_TxBufferSize ? SPI_TxBufferSi
 444              		.loc 1 212 0
 445 001a 2146     		mov	r1, r4
 446 001c 082C     		cmp	r4, #8
 447 001e A8BF     		it	ge
 448 0020 0821     		movge	r1, #8
 449 0022 C9B2     		uxtb	r1, r1
 450 0024 06EBC500 		add	r0, r6, r5, lsl #3
 451 0028 FFF7FEFF 		bl	SPIM_2_PutArray
 452              	.LVL72:
 453              	.L26:
 213:SPI_Interface.c ****         /* Wait for TX */
 214:SPI_Interface.c ****         while( !(SPIM_2_ReadTxStatus() & SPIM_2_STS_SPI_DONE) );
 454              		.loc 1 214 0 discriminator 1
 455 002c FFF7FEFF 		bl	SPIM_2_ReadTxStatus
 456              	.LVL73:
 457 0030 10F0010F 		tst	r0, #1
 458 0034 FAD0     		beq	.L26
 215:SPI_Interface.c ****         
 216:SPI_Interface.c ****         /* Update count */
 217:SPI_Interface.c ****         count -= SPI_TxBufferSize;
 459              		.loc 1 217 0
 460 0036 083C     		subs	r4, r4, #8
 461              	.LVL74:
 462 0038 64B2     		sxtb	r4, r4
 463              	.LVL75:
ARM GAS  C:\Users\gaeta\AppData\Local\Temp\ccveQHwj.s 			page 13


 218:SPI_Interface.c ****         index++;
 464              		.loc 1 218 0
 465 003a 0135     		adds	r5, r5, #1
 466              	.LVL76:
 467 003c 6DB2     		sxtb	r5, r5
 468              	.LVL77:
 469              	.L25:
 209:SPI_Interface.c ****             
 470              		.loc 1 209 0
 471 003e 002C     		cmp	r4, #0
 472 0040 EBDC     		bgt	.L27
 219:SPI_Interface.c ****            
 220:SPI_Interface.c ****     }
 221:SPI_Interface.c ****         
 222:SPI_Interface.c ****     /* Clear the RX Buffer */
 223:SPI_Interface.c ****     SPIM_2_ClearFIFO();
 473              		.loc 1 223 0
 474 0042 FFF7FEFF 		bl	SPIM_2_ClearFIFO
 475              	.LVL78:
 224:SPI_Interface.c ****     SPIM_2_ClearRxBuffer();
 476              		.loc 1 224 0
 477 0046 FFF7FEFF 		bl	SPIM_2_ClearRxBuffer
 478              	.LVL79:
 225:SPI_Interface.c ****         
 226:SPI_Interface.c ****     /* Init the Dummy TX Buffer */
 227:SPI_Interface.c ****     uint8_t dummyTX[SPI_RxBufferSize];
 228:SPI_Interface.c ****     memset(dummyTX, SPI_DUMMY_BYTE, SPI_RxBufferSize);
 479              		.loc 1 228 0
 480 004a 0026     		movs	r6, #0
 481              	.LVL80:
 482 004c 0096     		str	r6, [sp]
 483 004e 0196     		str	r6, [sp, #4]
 229:SPI_Interface.c ****         
 230:SPI_Interface.c ****     /* Update count for RX */
 231:SPI_Interface.c ****     count = bytesRX;
 484              		.loc 1 231 0
 485 0050 4FFA88F8 		sxtb	r8, r8
 486              	.LVL81:
 232:SPI_Interface.c ****     index = 0;
 233:SPI_Interface.c ****         
 234:SPI_Interface.c ****     /* Get the RX Data */
 235:SPI_Interface.c ****     while ( count > 0 ) {
 487              		.loc 1 235 0
 488 0054 20E0     		b	.L28
 489              	.LVL82:
 490              	.L32:
 236:SPI_Interface.c ****          
 237:SPI_Interface.c ****         /* Load the TX buffer with Dummy Bytes*/
 238:SPI_Interface.c ****         SPIM_2_PutArray(dummyTX, (count > SPI_TxBufferSize ? SPI_TxBufferSize : count));
 491              		.loc 1 238 0
 492 0056 C146     		mov	r9, r8
 493 0058 B8F1080F 		cmp	r8, #8
 494 005c A8BF     		it	ge
 495 005e 4FF00809 		movge	r9, #8
 496 0062 5FFA89F1 		uxtb	r1, r9
 497 0066 6846     		mov	r0, sp
 498 0068 FFF7FEFF 		bl	SPIM_2_PutArray
ARM GAS  C:\Users\gaeta\AppData\Local\Temp\ccveQHwj.s 			page 14


 499              	.LVL83:
 500              	.L29:
 239:SPI_Interface.c ****         /* Wait for TX */
 240:SPI_Interface.c ****         while( !(SPIM_2_ReadTxStatus() & SPIM_2_STS_SPI_DONE) );
 501              		.loc 1 240 0 discriminator 1
 502 006c FFF7FEFF 		bl	SPIM_2_ReadTxStatus
 503              	.LVL84:
 504 0070 10F0010F 		tst	r0, #1
 505 0074 FAD0     		beq	.L29
 506 0076 0024     		movs	r4, #0
 507 0078 06E0     		b	.L30
 508              	.LVL85:
 509              	.L31:
 510              	.LBB3:
 241:SPI_Interface.c ****         /* Read the RX Buffer */
 242:SPI_Interface.c ****         for( uint8_t j = 0; j < (count > SPI_TxBufferSize ? SPI_TxBufferSize : count); j++ ) {
 243:SPI_Interface.c ****             dataRX[j + index*SPI_RxBufferSize] = SPIM_2_ReadRxData();   
 511              		.loc 1 243 0 discriminator 3
 512 007a 04EBC605 		add	r5, r4, r6, lsl #3
 513 007e FFF7FEFF 		bl	SPIM_2_ReadRxData
 514              	.LVL86:
 515 0082 7855     		strb	r0, [r7, r5]
 242:SPI_Interface.c ****             dataRX[j + index*SPI_RxBufferSize] = SPIM_2_ReadRxData();   
 516              		.loc 1 242 0 discriminator 3
 517 0084 0134     		adds	r4, r4, #1
 518              	.LVL87:
 519 0086 E4B2     		uxtb	r4, r4
 520              	.LVL88:
 521              	.L30:
 242:SPI_Interface.c ****             dataRX[j + index*SPI_RxBufferSize] = SPIM_2_ReadRxData();   
 522              		.loc 1 242 0 is_stmt 0 discriminator 1
 523 0088 4C45     		cmp	r4, r9
 524 008a F6DB     		blt	.L31
 525              	.LBE3:
 244:SPI_Interface.c ****         }
 245:SPI_Interface.c ****         
 246:SPI_Interface.c ****         count -= SPI_RxBufferSize;
 526              		.loc 1 246 0 is_stmt 1
 527 008c A8F10808 		sub	r8, r8, #8
 528              	.LVL89:
 529 0090 4FFA88F8 		sxtb	r8, r8
 530              	.LVL90:
 247:SPI_Interface.c ****         index++;
 531              		.loc 1 247 0
 532 0094 0136     		adds	r6, r6, #1
 533              	.LVL91:
 534 0096 76B2     		sxtb	r6, r6
 535              	.LVL92:
 536              	.L28:
 235:SPI_Interface.c ****          
 537              		.loc 1 235 0
 538 0098 B8F1000F 		cmp	r8, #0
 539 009c DBDC     		bgt	.L32
 248:SPI_Interface.c ****         
 249:SPI_Interface.c ****     }
 250:SPI_Interface.c ****         
 251:SPI_Interface.c ****     /* Disable the Slave */
ARM GAS  C:\Users\gaeta\AppData\Local\Temp\ccveQHwj.s 			page 15


 252:SPI_Interface.c ****     SLAVE_CS_Write_2(1);
 540              		.loc 1 252 0
 541 009e 0120     		movs	r0, #1
 542 00a0 FFF7FEFF 		bl	CS_2_Write
 543              	.LVL93:
 253:SPI_Interface.c ****     	
 254:SPI_Interface.c ****     /* Clear */
 255:SPI_Interface.c ****     SPIM_2_ClearFIFO();
 544              		.loc 1 255 0
 545 00a4 FFF7FEFF 		bl	SPIM_2_ClearFIFO
 546              	.LVL94:
 256:SPI_Interface.c ****     SPIM_2_ClearRxBuffer();
 547              		.loc 1 256 0
 548 00a8 FFF7FEFF 		bl	SPIM_2_ClearRxBuffer
 549              	.LVL95:
 257:SPI_Interface.c ****     SPIM_2_ClearTxBuffer();
 550              		.loc 1 257 0
 551 00ac FFF7FEFF 		bl	SPIM_2_ClearTxBuffer
 552              	.LVL96:
 258:SPI_Interface.c **** 
 259:SPI_Interface.c **** }
 553              		.loc 1 259 0
 554 00b0 03B0     		add	sp, sp, #12
 555              		.cfi_def_cfa_offset 28
 556              		@ sp needed
 557 00b2 BDE8F083 		pop	{r4, r5, r6, r7, r8, r9, pc}
 558              		.cfi_endproc
 559              	.LFE6:
 560              		.size	ACC_SPI_Interface_Multi_RW, .-ACC_SPI_Interface_Multi_RW
 561 00b6 00BF     		.text
 562              	.Letext0:
 563              		.file 2 "c:\\program files (x86)\\cypress\\psoc creator\\4.3\\psoc creator\\import\\gnu\\arm\\5.4.
 564              		.file 3 "c:\\program files (x86)\\cypress\\psoc creator\\4.3\\psoc creator\\import\\gnu\\arm\\5.4.
 565              		.file 4 "Generated_Source\\PSoC5/cytypes.h"
 566              		.file 5 "Generated_Source\\PSoC5/CS_1.h"
 567              		.file 6 "Generated_Source\\PSoC5/SPIM_1.h"
 568              		.file 7 "Generated_Source\\PSoC5/CS_2.h"
 569              		.file 8 "Generated_Source\\PSoC5/SPIM_2.h"